ARM GAS  /tmp/ccGyVhXX.s 			page 1


   1              		.cpu cortex-m4
   2              		.arch armv7e-m
   3              		.fpu fpv4-sp-d16
   4              		.eabi_attribute 27, 1
   5              		.eabi_attribute 28, 1
   6              		.eabi_attribute 20, 1
   7              		.eabi_attribute 21, 1
   8              		.eabi_attribute 23, 3
   9              		.eabi_attribute 24, 1
  10              		.eabi_attribute 25, 1
  11              		.eabi_attribute 26, 1
  12              		.eabi_attribute 30, 6
  13              		.eabi_attribute 34, 1
  14              		.eabi_attribute 18, 4
  15              		.file	"IMU.c"
  16              		.text
  17              	.Ltext0:
  18              		.cfi_sections	.debug_frame
  19              		.file 1 "./Hardware/Src/IMU.c"
  20              		.global	Pic
  21              		.section	.rodata.Pic,"a"
  22              		.align	2
  25              	Pic:
  26 0000 D02E6542 		.word	1113927376
  27              		.global	K
  28              		.section	.rodata.K,"a"
  29              		.align	2
  32              	K:
  33 0000 FA007A3D 		.word	1031405818
  34              		.global	Kg
  35              		.section	.rodata.Kg,"a"
  36              		.align	2
  39              	Kg:
  40 0000 80008038 		.word	947912832
  41              		.global	Gyro
  42              		.section	.bss.Gyro,"aw",%nobits
  43              		.align	2
  46              	Gyro:
  47 0000 00000000 		.space	12
  47      00000000 
  47      00000000 
  48              		.global	QNum
  49              		.section	.data.QNum,"aw"
  50              		.align	2
  53              	QNum:
  54 0000 0000803F 		.word	1065353216
  55 0004 00000000 		.word	0
  56 0008 00000000 		.word	0
  57 000c 00000000 		.word	0
  58              		.global	angle
  59              		.section	.bss.angle,"aw",%nobits
  60              		.align	2
  63              	angle:
  64 0000 00000000 		.space	12
  64      00000000 
  64      00000000 
  65              		.global	e0
ARM GAS  /tmp/ccGyVhXX.s 			page 2


  66              		.section	.bss.e0,"aw",%nobits
  67              		.align	2
  70              	e0:
  71 0000 00000000 		.space	4
  72              		.global	e1
  73              		.section	.bss.e1,"aw",%nobits
  74              		.align	2
  77              	e1:
  78 0000 00000000 		.space	4
  79              		.global	e2
  80              		.section	.bss.e2,"aw",%nobits
  81              		.align	2
  84              	e2:
  85 0000 00000000 		.space	4
  86              		.global	e3
  87              		.section	.bss.e3,"aw",%nobits
  88              		.align	2
  91              	e3:
  92 0000 00000000 		.space	4
  93              		.global	Gyro_Xerr
  94              		.section	.bss.Gyro_Xerr,"aw",%nobits
  95              		.align	2
  98              	Gyro_Xerr:
  99 0000 00000000 		.space	4
 100              		.global	Gyro_Yerr
 101              		.section	.bss.Gyro_Yerr,"aw",%nobits
 102              		.align	2
 105              	Gyro_Yerr:
 106 0000 00000000 		.space	4
 107              		.global	Gyro_Zerr
 108              		.section	.bss.Gyro_Zerr,"aw",%nobits
 109              		.align	2
 112              	Gyro_Zerr:
 113 0000 00000000 		.space	4
 114              		.global	Acc_Xerr
 115              		.section	.bss.Acc_Xerr,"aw",%nobits
 116              		.align	2
 119              	Acc_Xerr:
 120 0000 00000000 		.space	4
 121              		.global	Acc_Yerr
 122              		.section	.bss.Acc_Yerr,"aw",%nobits
 123              		.align	2
 126              	Acc_Yerr:
 127 0000 00000000 		.space	4
 128              		.global	__aeabi_f2d
 129              		.global	__aeabi_dadd
 130              		.global	__aeabi_d2f
 131              		.global	__aeabi_dmul
 132              		.global	__aeabi_dsub
 133              		.global	__aeabi_ddiv
 134              		.section	.text.CalAngle,"ax",%progbits
 135              		.align	1
 136              		.global	CalAngle
 137              		.syntax unified
 138              		.thumb
 139              		.thumb_func
 141              	CalAngle:
ARM GAS  /tmp/ccGyVhXX.s 			page 3


 142              	.LFB123:
   1:./Hardware/Src/IMU.c **** #include "IMU.h"
   2:./Hardware/Src/IMU.c **** #include "HMC5883L.h"
   3:./Hardware/Src/IMU.c **** #include "MPU6050.h"
   4:./Hardware/Src/IMU.c **** #include <math.h>
   5:./Hardware/Src/IMU.c **** #include "delay.h"
   6:./Hardware/Src/IMU.c **** #include "Matrix.h"
   7:./Hardware/Src/IMU.c **** const float Pic = 180.0/3.14159624;
   8:./Hardware/Src/IMU.c **** const float K = 4000.0/65535;
   9:./Hardware/Src/IMU.c **** const float Kg = 4.0/65535;
  10:./Hardware/Src/IMU.c **** // const float Alpha = 0.2f;
  11:./Hardware/Src/IMU.c **** 
  12:./Hardware/Src/IMU.c **** extern u32 betime, aftime;
  13:./Hardware/Src/IMU.c **** 
  14:./Hardware/Src/IMU.c **** struct {
  15:./Hardware/Src/IMU.c ****     float x;
  16:./Hardware/Src/IMU.c ****     float y;
  17:./Hardware/Src/IMU.c ****     float z;
  18:./Hardware/Src/IMU.c **** } Gyro;
  19:./Hardware/Src/IMU.c **** 
  20:./Hardware/Src/IMU.c **** struct Qfour QNum = {1,0,0,0};
  21:./Hardware/Src/IMU.c **** struct Angle angle = {0,0,0};
  22:./Hardware/Src/IMU.c **** float e0,e1,e2,e3 ;
  23:./Hardware/Src/IMU.c **** float Gyro_Xerr,Gyro_Yerr,Gyro_Zerr = 0.0f;
  24:./Hardware/Src/IMU.c **** float Acc_Xerr,Acc_Yerr,Acc_Yerr = 0.0f;
  25:./Hardware/Src/IMU.c **** #ifdef Use_Mag
  26:./Hardware/Src/IMU.c **** void CalAngle(struct Angle *angle, float time){
 143              		.loc 1 26 47
 144              		.cfi_startproc
 145              		@ args = 0, pretend = 0, frame = 184
 146              		@ frame_needed = 1, uses_anonymous_args = 0
 147 0000 2DE9B043 		push	{r4, r5, r7, r8, r9, lr}
 148              		.cfi_def_cfa_offset 24
 149              		.cfi_offset 4, -24
 150              		.cfi_offset 5, -20
 151              		.cfi_offset 7, -16
 152              		.cfi_offset 8, -12
 153              		.cfi_offset 9, -8
 154              		.cfi_offset 14, -4
 155 0004 AEB0     		sub	sp, sp, #184
 156              		.cfi_def_cfa_offset 208
 157 0006 00AF     		add	r7, sp, #0
 158              		.cfi_def_cfa_register 7
 159 0008 7860     		str	r0, [r7, #4]
 160 000a 87ED000A 		vstr.32	s0, [r7]
  27:./Hardware/Src/IMU.c ****   float Mx = (HMC5883L_data[0]-Ox)/Rx/1090;
 161              		.loc 1 27 28
 162 000e E64B     		ldr	r3, .L4+8
 163 0010 B3F90030 		ldrsh	r3, [r3]
 164              		.loc 1 27 31
 165 0014 07EE903A 		vmov	s15, r3	@ int
 166 0018 B8EEE77A 		vcvt.f32.s32	s14, s15
 167 001c E34B     		ldr	r3, .L4+12
 168 001e D3ED007A 		vldr.32	s15, [r3]
 169 0022 77EE676A 		vsub.f32	s13, s14, s15
 170              		.loc 1 27 35
 171 0026 E24B     		ldr	r3, .L4+16
ARM GAS  /tmp/ccGyVhXX.s 			page 4


 172 0028 D3ED007A 		vldr.32	s15, [r3]
 173 002c 86EEA77A 		vdiv.f32	s14, s13, s15
 174              		.loc 1 27 9
 175 0030 DFEDE06A 		vldr.32	s13, .L4+20
 176 0034 C7EE267A 		vdiv.f32	s15, s14, s13
 177 0038 C7ED2D7A 		vstr.32	s15, [r7, #180]
  28:./Hardware/Src/IMU.c ****   float My = (HMC5883L_data[1]-Oy)/Ry/1090;
 178              		.loc 1 28 28
 179 003c DA4B     		ldr	r3, .L4+8
 180 003e B3F90230 		ldrsh	r3, [r3, #2]
 181              		.loc 1 28 31
 182 0042 07EE903A 		vmov	s15, r3	@ int
 183 0046 B8EEE77A 		vcvt.f32.s32	s14, s15
 184 004a DB4B     		ldr	r3, .L4+24
 185 004c D3ED007A 		vldr.32	s15, [r3]
 186 0050 77EE676A 		vsub.f32	s13, s14, s15
 187              		.loc 1 28 35
 188 0054 D94B     		ldr	r3, .L4+28
 189 0056 D3ED007A 		vldr.32	s15, [r3]
 190 005a 86EEA77A 		vdiv.f32	s14, s13, s15
 191              		.loc 1 28 9
 192 005e DFEDD56A 		vldr.32	s13, .L4+20
 193 0062 C7EE267A 		vdiv.f32	s15, s14, s13
 194 0066 C7ED2C7A 		vstr.32	s15, [r7, #176]
  29:./Hardware/Src/IMU.c ****   float Mz = (HMC5883L_data[2]-Oz)/Rz/1090;
 195              		.loc 1 29 28
 196 006a CF4B     		ldr	r3, .L4+8
 197 006c B3F90430 		ldrsh	r3, [r3, #4]
 198              		.loc 1 29 31
 199 0070 07EE903A 		vmov	s15, r3	@ int
 200 0074 B8EEE77A 		vcvt.f32.s32	s14, s15
 201 0078 D14B     		ldr	r3, .L4+32
 202 007a D3ED007A 		vldr.32	s15, [r3]
 203 007e 77EE676A 		vsub.f32	s13, s14, s15
 204              		.loc 1 29 35
 205 0082 D04B     		ldr	r3, .L4+36
 206 0084 D3ED007A 		vldr.32	s15, [r3]
 207 0088 86EEA77A 		vdiv.f32	s14, s13, s15
 208              		.loc 1 29 9
 209 008c DFEDC96A 		vldr.32	s13, .L4+20
 210 0090 C7EE267A 		vdiv.f32	s15, s14, s13
 211 0094 C7ED2B7A 		vstr.32	s15, [r7, #172]
  30:./Hardware/Src/IMU.c ****   float Wx = (MPU6050_data[4]*K/Pic);
 212              		.loc 1 30 27
 213 0098 CB4B     		ldr	r3, .L4+40
 214 009a B3F90830 		ldrsh	r3, [r3, #8]
 215              		.loc 1 30 30
 216 009e 07EE903A 		vmov	s15, r3	@ int
 217 00a2 F8EEE77A 		vcvt.f32.s32	s15, s15
 218 00a6 9FEDC97A 		vldr.32	s14, .L4+44
 219 00aa 27EE877A 		vmul.f32	s14, s15, s14
 220              		.loc 1 30 32
 221 00ae DFEDC86A 		vldr.32	s13, .L4+48
 222              		.loc 1 30 9
 223 00b2 C7EE267A 		vdiv.f32	s15, s14, s13
 224 00b6 C7ED2A7A 		vstr.32	s15, [r7, #168]
  31:./Hardware/Src/IMU.c ****   float Wy = (MPU6050_data[5]*K/Pic);
ARM GAS  /tmp/ccGyVhXX.s 			page 5


 225              		.loc 1 31 27
 226 00ba C34B     		ldr	r3, .L4+40
 227 00bc B3F90A30 		ldrsh	r3, [r3, #10]
 228              		.loc 1 31 30
 229 00c0 07EE903A 		vmov	s15, r3	@ int
 230 00c4 F8EEE77A 		vcvt.f32.s32	s15, s15
 231 00c8 9FEDC07A 		vldr.32	s14, .L4+44
 232 00cc 27EE877A 		vmul.f32	s14, s15, s14
 233              		.loc 1 31 32
 234 00d0 DFEDBF6A 		vldr.32	s13, .L4+48
 235              		.loc 1 31 9
 236 00d4 C7EE267A 		vdiv.f32	s15, s14, s13
 237 00d8 C7ED297A 		vstr.32	s15, [r7, #164]
  32:./Hardware/Src/IMU.c ****   float Wz = (MPU6050_data[6]*K/Pic);
 238              		.loc 1 32 27
 239 00dc BA4B     		ldr	r3, .L4+40
 240 00de B3F90C30 		ldrsh	r3, [r3, #12]
 241              		.loc 1 32 30
 242 00e2 07EE903A 		vmov	s15, r3	@ int
 243 00e6 F8EEE77A 		vcvt.f32.s32	s15, s15
 244 00ea 9FEDB87A 		vldr.32	s14, .L4+44
 245 00ee 27EE877A 		vmul.f32	s14, s15, s14
 246              		.loc 1 32 32
 247 00f2 DFEDB76A 		vldr.32	s13, .L4+48
 248              		.loc 1 32 9
 249 00f6 C7EE267A 		vdiv.f32	s15, s14, s13
 250 00fa C7ED287A 		vstr.32	s15, [r7, #160]
  33:./Hardware/Src/IMU.c ****   float Ax = MPU6050_data[0] * Kg;
 251              		.loc 1 33 26
 252 00fe B24B     		ldr	r3, .L4+40
 253 0100 B3F90030 		ldrsh	r3, [r3]
 254              		.loc 1 33 30
 255 0104 07EE903A 		vmov	s15, r3	@ int
 256 0108 F8EEE77A 		vcvt.f32.s32	s15, s15
 257 010c 9FEDB17A 		vldr.32	s14, .L4+52
 258              		.loc 1 33 9
 259 0110 67EE877A 		vmul.f32	s15, s15, s14
 260 0114 C7ED277A 		vstr.32	s15, [r7, #156]
  34:./Hardware/Src/IMU.c ****   float Ay = MPU6050_data[1] * Kg;
 261              		.loc 1 34 26
 262 0118 AB4B     		ldr	r3, .L4+40
 263 011a B3F90230 		ldrsh	r3, [r3, #2]
 264              		.loc 1 34 30
 265 011e 07EE903A 		vmov	s15, r3	@ int
 266 0122 F8EEE77A 		vcvt.f32.s32	s15, s15
 267 0126 9FEDAB7A 		vldr.32	s14, .L4+52
 268              		.loc 1 34 9
 269 012a 67EE877A 		vmul.f32	s15, s15, s14
 270 012e C7ED267A 		vstr.32	s15, [r7, #152]
  35:./Hardware/Src/IMU.c ****   float Az = MPU6050_data[2] * Kg;
 271              		.loc 1 35 26
 272 0132 A54B     		ldr	r3, .L4+40
 273 0134 B3F90430 		ldrsh	r3, [r3, #4]
 274              		.loc 1 35 30
 275 0138 07EE903A 		vmov	s15, r3	@ int
 276 013c F8EEE77A 		vcvt.f32.s32	s15, s15
 277 0140 9FEDA47A 		vldr.32	s14, .L4+52
ARM GAS  /tmp/ccGyVhXX.s 			page 6


 278              		.loc 1 35 9
 279 0144 67EE877A 		vmul.f32	s15, s15, s14
 280 0148 C7ED257A 		vstr.32	s15, [r7, #148]
  36:./Hardware/Src/IMU.c ****   float _2q0, _2q1, _2q2, _2q3, _4q0, _4q1, _4q2 ,_8q1, _8q2, q0q0,q0q1,q0q2,q0q3,_2q0q2, q1q1, q1q
  37:./Hardware/Src/IMU.c **** //加速度归一化
  38:./Hardware/Src/IMU.c ****   float sum_ac = sqrt(pow(Ax,2)+pow(Ay,2)+pow(Az,2));
 281              		.loc 1 38 23
 282 014c D7F89C00 		ldr	r0, [r7, #156]	@ float
 283 0150 FFF7FEFF 		bl	__aeabi_f2d
 284 0154 0246     		mov	r2, r0
 285 0156 0B46     		mov	r3, r1
 286 0158 9FED911B 		vldr.64	d1, .L4
 287 015c 43EC102B 		vmov	d0, r2, r3
 288 0160 FFF7FEFF 		bl	pow
 289 0164 55EC104B 		vmov	r4, r5, d0
 290              		.loc 1 38 33
 291 0168 D7F89800 		ldr	r0, [r7, #152]	@ float
 292 016c FFF7FEFF 		bl	__aeabi_f2d
 293 0170 0246     		mov	r2, r0
 294 0172 0B46     		mov	r3, r1
 295 0174 9FED8A1B 		vldr.64	d1, .L4
 296 0178 43EC102B 		vmov	d0, r2, r3
 297 017c FFF7FEFF 		bl	pow
 298 0180 53EC102B 		vmov	r2, r3, d0
 299              		.loc 1 38 32
 300 0184 2046     		mov	r0, r4
 301 0186 2946     		mov	r1, r5
 302 0188 FFF7FEFF 		bl	__aeabi_dadd
 303 018c 0246     		mov	r2, r0
 304 018e 0B46     		mov	r3, r1
 305 0190 1446     		mov	r4, r2
 306 0192 1D46     		mov	r5, r3
 307              		.loc 1 38 43
 308 0194 D7F89400 		ldr	r0, [r7, #148]	@ float
 309 0198 FFF7FEFF 		bl	__aeabi_f2d
 310 019c 0246     		mov	r2, r0
 311 019e 0B46     		mov	r3, r1
 312 01a0 9FED7F1B 		vldr.64	d1, .L4
 313 01a4 43EC102B 		vmov	d0, r2, r3
 314 01a8 FFF7FEFF 		bl	pow
 315 01ac 53EC102B 		vmov	r2, r3, d0
 316              		.loc 1 38 18
 317 01b0 2046     		mov	r0, r4
 318 01b2 2946     		mov	r1, r5
 319 01b4 FFF7FEFF 		bl	__aeabi_dadd
 320 01b8 0246     		mov	r2, r0
 321 01ba 0B46     		mov	r3, r1
 322 01bc 43EC172B 		vmov	d7, r2, r3
 323 01c0 B0EE470A 		vmov.f32	s0, s14
 324 01c4 F0EE670A 		vmov.f32	s1, s15
 325 01c8 FFF7FEFF 		bl	sqrt
 326 01cc 53EC102B 		vmov	r2, r3, d0
 327              		.loc 1 38 9
 328 01d0 1046     		mov	r0, r2
 329 01d2 1946     		mov	r1, r3
 330 01d4 FFF7FEFF 		bl	__aeabi_d2f
 331 01d8 0346     		mov	r3, r0	@ float
ARM GAS  /tmp/ccGyVhXX.s 			page 7


 332 01da C7F89030 		str	r3, [r7, #144]	@ float
  39:./Hardware/Src/IMU.c ****   Ax = Ax/sum_ac;
 333              		.loc 1 39 6
 334 01de D7ED276A 		vldr.32	s13, [r7, #156]
 335 01e2 97ED247A 		vldr.32	s14, [r7, #144]
 336 01e6 C6EE877A 		vdiv.f32	s15, s13, s14
 337 01ea C7ED277A 		vstr.32	s15, [r7, #156]
  40:./Hardware/Src/IMU.c ****   Ay = Ay/sum_ac;
 338              		.loc 1 40 6
 339 01ee D7ED266A 		vldr.32	s13, [r7, #152]
 340 01f2 97ED247A 		vldr.32	s14, [r7, #144]
 341 01f6 C6EE877A 		vdiv.f32	s15, s13, s14
 342 01fa C7ED267A 		vstr.32	s15, [r7, #152]
  41:./Hardware/Src/IMU.c ****   Az = Az/sum_ac;
 343              		.loc 1 41 6
 344 01fe D7ED256A 		vldr.32	s13, [r7, #148]
 345 0202 97ED247A 		vldr.32	s14, [r7, #144]
 346 0206 C6EE877A 		vdiv.f32	s15, s13, s14
 347 020a C7ED257A 		vstr.32	s15, [r7, #148]
  42:./Hardware/Src/IMU.c **** //磁力计
  43:./Hardware/Src/IMU.c ****    _2q0Mx = 2.0f * QNum.q0 * Mx;
 348              		.loc 1 43 24
 349 020e 724B     		ldr	r3, .L4+56
 350 0210 D3ED007A 		vldr.32	s15, [r3]
 351              		.loc 1 43 18
 352 0214 77EEA77A 		vadd.f32	s15, s15, s15
 353              		.loc 1 43 11
 354 0218 97ED2D7A 		vldr.32	s14, [r7, #180]
 355 021c 67EE277A 		vmul.f32	s15, s14, s15
 356 0220 C7ED237A 		vstr.32	s15, [r7, #140]
  44:./Hardware/Src/IMU.c ****    _2q0My = 2.0f * QNum.q0 * My;
 357              		.loc 1 44 24
 358 0224 6C4B     		ldr	r3, .L4+56
 359 0226 D3ED007A 		vldr.32	s15, [r3]
 360              		.loc 1 44 18
 361 022a 77EEA77A 		vadd.f32	s15, s15, s15
 362              		.loc 1 44 11
 363 022e 97ED2C7A 		vldr.32	s14, [r7, #176]
 364 0232 67EE277A 		vmul.f32	s15, s14, s15
 365 0236 C7ED227A 		vstr.32	s15, [r7, #136]
  45:./Hardware/Src/IMU.c ****    _2q0Mz = 2.0f * QNum.q0 * Mz;
 366              		.loc 1 45 24
 367 023a 674B     		ldr	r3, .L4+56
 368 023c D3ED007A 		vldr.32	s15, [r3]
 369              		.loc 1 45 18
 370 0240 77EEA77A 		vadd.f32	s15, s15, s15
 371              		.loc 1 45 11
 372 0244 97ED2B7A 		vldr.32	s14, [r7, #172]
 373 0248 67EE277A 		vmul.f32	s15, s14, s15
 374 024c C7ED217A 		vstr.32	s15, [r7, #132]
  46:./Hardware/Src/IMU.c ****    _2q1Mx = 2.0f * QNum.q1 * Mx;
 375              		.loc 1 46 24
 376 0250 614B     		ldr	r3, .L4+56
 377 0252 D3ED017A 		vldr.32	s15, [r3, #4]
 378              		.loc 1 46 18
 379 0256 77EEA77A 		vadd.f32	s15, s15, s15
 380              		.loc 1 46 11
ARM GAS  /tmp/ccGyVhXX.s 			page 8


 381 025a 97ED2D7A 		vldr.32	s14, [r7, #180]
 382 025e 67EE277A 		vmul.f32	s15, s14, s15
 383 0262 C7ED207A 		vstr.32	s15, [r7, #128]
  47:./Hardware/Src/IMU.c **** //加速度
  48:./Hardware/Src/IMU.c **** 		_2q0 = 2.0f * QNum.q0;
 384              		.loc 1 48 21
 385 0266 5C4B     		ldr	r3, .L4+56
 386 0268 D3ED007A 		vldr.32	s15, [r3]
 387              		.loc 1 48 8
 388 026c 77EEA77A 		vadd.f32	s15, s15, s15
 389 0270 C7ED1F7A 		vstr.32	s15, [r7, #124]
  49:./Hardware/Src/IMU.c **** 		_2q1 = 2.0f * QNum.q1;
 390              		.loc 1 49 21
 391 0274 584B     		ldr	r3, .L4+56
 392 0276 D3ED017A 		vldr.32	s15, [r3, #4]
 393              		.loc 1 49 8
 394 027a 77EEA77A 		vadd.f32	s15, s15, s15
 395 027e C7ED1E7A 		vstr.32	s15, [r7, #120]
  50:./Hardware/Src/IMU.c **** 		_2q2 = 2.0f * QNum.q2;
 396              		.loc 1 50 21
 397 0282 554B     		ldr	r3, .L4+56
 398 0284 D3ED027A 		vldr.32	s15, [r3, #8]
 399              		.loc 1 50 8
 400 0288 77EEA77A 		vadd.f32	s15, s15, s15
 401 028c C7ED1D7A 		vstr.32	s15, [r7, #116]
  51:./Hardware/Src/IMU.c **** 		_2q3 = 2.0f * QNum.q3;
 402              		.loc 1 51 21
 403 0290 514B     		ldr	r3, .L4+56
 404 0292 D3ED037A 		vldr.32	s15, [r3, #12]
 405              		.loc 1 51 8
 406 0296 77EEA77A 		vadd.f32	s15, s15, s15
 407 029a C7ED1C7A 		vstr.32	s15, [r7, #112]
  52:./Hardware/Src/IMU.c **** 		_4q0 = 4.0f * QNum.q0;
 408              		.loc 1 52 21
 409 029e 4E4B     		ldr	r3, .L4+56
 410 02a0 D3ED007A 		vldr.32	s15, [r3]
 411              		.loc 1 52 8
 412 02a4 B1EE007A 		vmov.f32	s14, #4.0e+0
 413 02a8 67EE877A 		vmul.f32	s15, s15, s14
 414 02ac C7ED1B7A 		vstr.32	s15, [r7, #108]
  53:./Hardware/Src/IMU.c **** 		_4q1 = 4.0f * QNum.q1;
 415              		.loc 1 53 21
 416 02b0 494B     		ldr	r3, .L4+56
 417 02b2 D3ED017A 		vldr.32	s15, [r3, #4]
 418              		.loc 1 53 8
 419 02b6 B1EE007A 		vmov.f32	s14, #4.0e+0
 420 02ba 67EE877A 		vmul.f32	s15, s15, s14
 421 02be C7ED1A7A 		vstr.32	s15, [r7, #104]
  54:./Hardware/Src/IMU.c **** 		_4q2 = 4.0f * QNum.q2;
 422              		.loc 1 54 21
 423 02c2 454B     		ldr	r3, .L4+56
 424 02c4 D3ED027A 		vldr.32	s15, [r3, #8]
 425              		.loc 1 54 8
 426 02c8 B1EE007A 		vmov.f32	s14, #4.0e+0
 427 02cc 67EE877A 		vmul.f32	s15, s15, s14
 428 02d0 C7ED197A 		vstr.32	s15, [r7, #100]
  55:./Hardware/Src/IMU.c **** 		_8q1 = 8.0f * QNum.q1;
ARM GAS  /tmp/ccGyVhXX.s 			page 9


 429              		.loc 1 55 21
 430 02d4 404B     		ldr	r3, .L4+56
 431 02d6 D3ED017A 		vldr.32	s15, [r3, #4]
 432              		.loc 1 55 8
 433 02da B2EE007A 		vmov.f32	s14, #8.0e+0
 434 02de 67EE877A 		vmul.f32	s15, s15, s14
 435 02e2 C7ED187A 		vstr.32	s15, [r7, #96]
  56:./Hardware/Src/IMU.c **** 		_8q2 = 8.0f * QNum.q2;
 436              		.loc 1 56 21
 437 02e6 3C4B     		ldr	r3, .L4+56
 438 02e8 D3ED027A 		vldr.32	s15, [r3, #8]
 439              		.loc 1 56 8
 440 02ec B2EE007A 		vmov.f32	s14, #8.0e+0
 441 02f0 67EE877A 		vmul.f32	s15, s15, s14
 442 02f4 C7ED177A 		vstr.32	s15, [r7, #92]
  57:./Hardware/Src/IMU.c **** 		q0q0 = QNum.q0 * QNum.q0;
 443              		.loc 1 57 14
 444 02f8 374B     		ldr	r3, .L4+56
 445 02fa 93ED007A 		vldr.32	s14, [r3]
 446              		.loc 1 57 24
 447 02fe 364B     		ldr	r3, .L4+56
 448 0300 D3ED007A 		vldr.32	s15, [r3]
 449              		.loc 1 57 8
 450 0304 67EE277A 		vmul.f32	s15, s14, s15
 451 0308 C7ED167A 		vstr.32	s15, [r7, #88]
  58:./Hardware/Src/IMU.c ****     q0q1 = QNum.q0 * QNum.q1;
 452              		.loc 1 58 16
 453 030c 324B     		ldr	r3, .L4+56
 454 030e 93ED007A 		vldr.32	s14, [r3]
 455              		.loc 1 58 26
 456 0312 314B     		ldr	r3, .L4+56
 457 0314 D3ED017A 		vldr.32	s15, [r3, #4]
 458              		.loc 1 58 10
 459 0318 67EE277A 		vmul.f32	s15, s14, s15
 460 031c C7ED157A 		vstr.32	s15, [r7, #84]
  59:./Hardware/Src/IMU.c ****     q0q2 = QNum.q0 * QNum.q2;
 461              		.loc 1 59 16
 462 0320 2D4B     		ldr	r3, .L4+56
 463 0322 93ED007A 		vldr.32	s14, [r3]
 464              		.loc 1 59 26
 465 0326 2C4B     		ldr	r3, .L4+56
 466 0328 D3ED027A 		vldr.32	s15, [r3, #8]
 467              		.loc 1 59 10
 468 032c 67EE277A 		vmul.f32	s15, s14, s15
 469 0330 C7ED147A 		vstr.32	s15, [r7, #80]
  60:./Hardware/Src/IMU.c ****     _2q0q2 = 2.0f * QNum.q2 * QNum.q0;
 470              		.loc 1 60 25
 471 0334 284B     		ldr	r3, .L4+56
 472 0336 D3ED027A 		vldr.32	s15, [r3, #8]
 473              		.loc 1 60 19
 474 033a 37EEA77A 		vadd.f32	s14, s15, s15
 475              		.loc 1 60 35
 476 033e 264B     		ldr	r3, .L4+56
 477 0340 D3ED007A 		vldr.32	s15, [r3]
 478              		.loc 1 60 12
 479 0344 67EE277A 		vmul.f32	s15, s14, s15
 480 0348 C7ED137A 		vstr.32	s15, [r7, #76]
ARM GAS  /tmp/ccGyVhXX.s 			page 10


  61:./Hardware/Src/IMU.c **** 		q1q1 = QNum.q1 * QNum.q1;
 481              		.loc 1 61 14
 482 034c 224B     		ldr	r3, .L4+56
 483 034e 93ED017A 		vldr.32	s14, [r3, #4]
 484              		.loc 1 61 24
 485 0352 214B     		ldr	r3, .L4+56
 486 0354 D3ED017A 		vldr.32	s15, [r3, #4]
 487              		.loc 1 61 8
 488 0358 67EE277A 		vmul.f32	s15, s14, s15
 489 035c C7ED127A 		vstr.32	s15, [r7, #72]
  62:./Hardware/Src/IMU.c ****     q1q2 = QNum.q1 * QNum.q2;
 490              		.loc 1 62 16
 491 0360 1D4B     		ldr	r3, .L4+56
 492 0362 93ED017A 		vldr.32	s14, [r3, #4]
 493              		.loc 1 62 26
 494 0366 1C4B     		ldr	r3, .L4+56
 495 0368 D3ED027A 		vldr.32	s15, [r3, #8]
 496              		.loc 1 62 10
 497 036c 67EE277A 		vmul.f32	s15, s14, s15
 498 0370 C7ED117A 		vstr.32	s15, [r7, #68]
  63:./Hardware/Src/IMU.c ****     q0q3 = QNum.q0 * QNum.q3;
 499              		.loc 1 63 16
 500 0374 184B     		ldr	r3, .L4+56
 501 0376 93ED007A 		vldr.32	s14, [r3]
 502              		.loc 1 63 26
 503 037a 174B     		ldr	r3, .L4+56
 504 037c D3ED037A 		vldr.32	s15, [r3, #12]
 505              		.loc 1 63 10
 506 0380 67EE277A 		vmul.f32	s15, s14, s15
 507 0384 C7ED107A 		vstr.32	s15, [r7, #64]
  64:./Hardware/Src/IMU.c ****     q1q3 = QNum.q1 * QNum.q3;
 508              		.loc 1 64 16
 509 0388 134B     		ldr	r3, .L4+56
 510 038a 93ED017A 		vldr.32	s14, [r3, #4]
 511              		.loc 1 64 26
 512 038e 124B     		ldr	r3, .L4+56
 513 0390 D3ED037A 		vldr.32	s15, [r3, #12]
 514              		.loc 1 64 10
 515 0394 67EE277A 		vmul.f32	s15, s14, s15
 516 0398 C7ED0F7A 		vstr.32	s15, [r7, #60]
 517 039c 1EE0     		b	.L5
 518              	.L6:
 519 039e 00BF     		.align	3
 520              	.L4:
 521 03a0 00000000 		.word	0
 522 03a4 00000040 		.word	1073741824
 523 03a8 00000000 		.word	HMC5883L_data
 524 03ac 00000000 		.word	Ox
 525 03b0 00000000 		.word	Rx
 526 03b4 00408844 		.word	1149779968
 527 03b8 00000000 		.word	Oy
 528 03bc 00000000 		.word	Ry
 529 03c0 00000000 		.word	Oz
 530 03c4 00000000 		.word	Rz
 531 03c8 00000000 		.word	MPU6050_data
 532 03cc FA007A3D 		.word	1031405818
 533 03d0 D02E6542 		.word	1113927376
ARM GAS  /tmp/ccGyVhXX.s 			page 11


 534 03d4 80008038 		.word	947912832
 535 03d8 00000000 		.word	QNum
 536              	.L5:
  65:./Hardware/Src/IMU.c **** 		q2q2 = QNum.q2 * QNum.q2;
 537              		.loc 1 65 14
 538 03dc EF4B     		ldr	r3, .L7
 539 03de 93ED027A 		vldr.32	s14, [r3, #8]
 540              		.loc 1 65 24
 541 03e2 EE4B     		ldr	r3, .L7
 542 03e4 D3ED027A 		vldr.32	s15, [r3, #8]
 543              		.loc 1 65 8
 544 03e8 67EE277A 		vmul.f32	s15, s14, s15
 545 03ec C7ED0E7A 		vstr.32	s15, [r7, #56]
  66:./Hardware/Src/IMU.c ****     q2q3 = QNum.q2 * QNum.q3;
 546              		.loc 1 66 16
 547 03f0 EA4B     		ldr	r3, .L7
 548 03f2 93ED027A 		vldr.32	s14, [r3, #8]
 549              		.loc 1 66 26
 550 03f6 E94B     		ldr	r3, .L7
 551 03f8 D3ED037A 		vldr.32	s15, [r3, #12]
 552              		.loc 1 66 10
 553 03fc 67EE277A 		vmul.f32	s15, s14, s15
 554 0400 C7ED0D7A 		vstr.32	s15, [r7, #52]
  67:./Hardware/Src/IMU.c **** 		q3q3 = QNum.q3 * QNum.q3;
 555              		.loc 1 67 14
 556 0404 E54B     		ldr	r3, .L7
 557 0406 93ED037A 		vldr.32	s14, [r3, #12]
 558              		.loc 1 67 24
 559 040a E44B     		ldr	r3, .L7
 560 040c D3ED037A 		vldr.32	s15, [r3, #12]
 561              		.loc 1 67 8
 562 0410 67EE277A 		vmul.f32	s15, s14, s15
 563 0414 C7ED0C7A 		vstr.32	s15, [r7, #48]
  68:./Hardware/Src/IMU.c ****     _2q2q3 = 2.0f * QNum.q2 * QNum.q3;
 564              		.loc 1 68 25
 565 0418 E04B     		ldr	r3, .L7
 566 041a D3ED027A 		vldr.32	s15, [r3, #8]
 567              		.loc 1 68 19
 568 041e 37EEA77A 		vadd.f32	s14, s15, s15
 569              		.loc 1 68 35
 570 0422 DE4B     		ldr	r3, .L7
 571 0424 D3ED037A 		vldr.32	s15, [r3, #12]
 572              		.loc 1 68 12
 573 0428 67EE277A 		vmul.f32	s15, s14, s15
 574 042c C7ED0B7A 		vstr.32	s15, [r7, #44]
  69:./Hardware/Src/IMU.c **** //磁场
  70:./Hardware/Src/IMU.c ****     hx = Mx*q0q0 - _2q0My*QNum.q3 + _2q0Mz*QNum.q2 + Mx*q1q1 + My*_2q1*QNum.q2 + Mz*_2q1*QNum.q3 - 
 575              		.loc 1 70 12
 576 0430 97ED2D7A 		vldr.32	s14, [r7, #180]
 577 0434 D7ED167A 		vldr.32	s15, [r7, #88]
 578 0438 27EE277A 		vmul.f32	s14, s14, s15
 579              		.loc 1 70 31
 580 043c D74B     		ldr	r3, .L7
 581 043e D3ED036A 		vldr.32	s13, [r3, #12]
 582              		.loc 1 70 26
 583 0442 D7ED227A 		vldr.32	s15, [r7, #136]
 584 0446 66EEA77A 		vmul.f32	s15, s13, s15
ARM GAS  /tmp/ccGyVhXX.s 			page 12


 585              		.loc 1 70 18
 586 044a 37EE677A 		vsub.f32	s14, s14, s15
 587              		.loc 1 70 48
 588 044e D34B     		ldr	r3, .L7
 589 0450 D3ED026A 		vldr.32	s13, [r3, #8]
 590              		.loc 1 70 43
 591 0454 D7ED217A 		vldr.32	s15, [r7, #132]
 592 0458 66EEA77A 		vmul.f32	s15, s13, s15
 593              		.loc 1 70 35
 594 045c 37EE277A 		vadd.f32	s14, s14, s15
 595              		.loc 1 70 56
 596 0460 D7ED2D6A 		vldr.32	s13, [r7, #180]
 597 0464 D7ED127A 		vldr.32	s15, [r7, #72]
 598 0468 66EEA77A 		vmul.f32	s15, s13, s15
 599              		.loc 1 70 52
 600 046c 37EE277A 		vadd.f32	s14, s14, s15
 601              		.loc 1 70 66
 602 0470 D7ED2C6A 		vldr.32	s13, [r7, #176]
 603 0474 D7ED1E7A 		vldr.32	s15, [r7, #120]
 604 0478 66EEA76A 		vmul.f32	s13, s13, s15
 605              		.loc 1 70 76
 606 047c C74B     		ldr	r3, .L7
 607 047e D3ED027A 		vldr.32	s15, [r3, #8]
 608              		.loc 1 70 71
 609 0482 66EEA77A 		vmul.f32	s15, s13, s15
 610              		.loc 1 70 62
 611 0486 37EE277A 		vadd.f32	s14, s14, s15
 612              		.loc 1 70 84
 613 048a D7ED2B6A 		vldr.32	s13, [r7, #172]
 614 048e D7ED1E7A 		vldr.32	s15, [r7, #120]
 615 0492 66EEA76A 		vmul.f32	s13, s13, s15
 616              		.loc 1 70 94
 617 0496 C14B     		ldr	r3, .L7
 618 0498 D3ED037A 		vldr.32	s15, [r3, #12]
 619              		.loc 1 70 89
 620 049c 66EEA77A 		vmul.f32	s15, s13, s15
 621              		.loc 1 70 80
 622 04a0 37EE277A 		vadd.f32	s14, s14, s15
 623              		.loc 1 70 102
 624 04a4 D7ED2D6A 		vldr.32	s13, [r7, #180]
 625 04a8 D7ED0E7A 		vldr.32	s15, [r7, #56]
 626 04ac 66EEA77A 		vmul.f32	s15, s13, s15
 627              		.loc 1 70 98
 628 04b0 37EE677A 		vsub.f32	s14, s14, s15
 629              		.loc 1 70 112
 630 04b4 D7ED2D6A 		vldr.32	s13, [r7, #180]
 631 04b8 D7ED0C7A 		vldr.32	s15, [r7, #48]
 632 04bc 66EEA77A 		vmul.f32	s15, s13, s15
 633              		.loc 1 70 8
 634 04c0 77EE677A 		vsub.f32	s15, s14, s15
 635 04c4 C7ED0A7A 		vstr.32	s15, [r7, #40]
  71:./Hardware/Src/IMU.c ****     hy = _2q0Mx * QNum.q3 + My * q0q0 - _2q0Mz * QNum.q1 + _2q1Mx * QNum.q2 - My * q1q1 + My * q2q2
 636              		.loc 1 71 23
 637 04c8 B44B     		ldr	r3, .L7
 638 04ca 93ED037A 		vldr.32	s14, [r3, #12]
 639              		.loc 1 71 17
 640 04ce D7ED237A 		vldr.32	s15, [r7, #140]
ARM GAS  /tmp/ccGyVhXX.s 			page 13


 641 04d2 27EE277A 		vmul.f32	s14, s14, s15
 642              		.loc 1 71 32
 643 04d6 D7ED2C6A 		vldr.32	s13, [r7, #176]
 644 04da D7ED167A 		vldr.32	s15, [r7, #88]
 645 04de 66EEA77A 		vmul.f32	s15, s13, s15
 646              		.loc 1 71 27
 647 04e2 37EE277A 		vadd.f32	s14, s14, s15
 648              		.loc 1 71 54
 649 04e6 AD4B     		ldr	r3, .L7
 650 04e8 D3ED016A 		vldr.32	s13, [r3, #4]
 651              		.loc 1 71 48
 652 04ec D7ED217A 		vldr.32	s15, [r7, #132]
 653 04f0 66EEA77A 		vmul.f32	s15, s13, s15
 654              		.loc 1 71 39
 655 04f4 37EE677A 		vsub.f32	s14, s14, s15
 656              		.loc 1 71 73
 657 04f8 A84B     		ldr	r3, .L7
 658 04fa D3ED026A 		vldr.32	s13, [r3, #8]
 659              		.loc 1 71 67
 660 04fe D7ED207A 		vldr.32	s15, [r7, #128]
 661 0502 66EEA77A 		vmul.f32	s15, s13, s15
 662              		.loc 1 71 58
 663 0506 37EE277A 		vadd.f32	s14, s14, s15
 664              		.loc 1 71 82
 665 050a D7ED2C6A 		vldr.32	s13, [r7, #176]
 666 050e D7ED127A 		vldr.32	s15, [r7, #72]
 667 0512 66EEA77A 		vmul.f32	s15, s13, s15
 668              		.loc 1 71 77
 669 0516 37EE677A 		vsub.f32	s14, s14, s15
 670              		.loc 1 71 94
 671 051a D7ED2C6A 		vldr.32	s13, [r7, #176]
 672 051e D7ED0E7A 		vldr.32	s15, [r7, #56]
 673 0522 66EEA77A 		vmul.f32	s15, s13, s15
 674              		.loc 1 71 89
 675 0526 37EE277A 		vadd.f32	s14, s14, s15
 676              		.loc 1 71 108
 677 052a D7ED1D6A 		vldr.32	s13, [r7, #116]
 678 052e D7ED2B7A 		vldr.32	s15, [r7, #172]
 679 0532 66EEA76A 		vmul.f32	s13, s13, s15
 680              		.loc 1 71 119
 681 0536 994B     		ldr	r3, .L7
 682 0538 D3ED037A 		vldr.32	s15, [r3, #12]
 683              		.loc 1 71 113
 684 053c 66EEA77A 		vmul.f32	s15, s13, s15
 685              		.loc 1 71 101
 686 0540 37EE277A 		vadd.f32	s14, s14, s15
 687              		.loc 1 71 128
 688 0544 D7ED2C6A 		vldr.32	s13, [r7, #176]
 689 0548 D7ED0C7A 		vldr.32	s15, [r7, #48]
 690 054c 66EEA77A 		vmul.f32	s15, s13, s15
 691              		.loc 1 71 8
 692 0550 77EE677A 		vsub.f32	s15, s14, s15
 693 0554 C7ED097A 		vstr.32	s15, [r7, #36]
  72:./Hardware/Src/IMU.c **** 		_2bx = sqrt(hx * hx + hy * hy);
 694              		.loc 1 72 18
 695 0558 D7ED0A7A 		vldr.32	s15, [r7, #40]
 696 055c 27EEA77A 		vmul.f32	s14, s15, s15
ARM GAS  /tmp/ccGyVhXX.s 			page 14


 697              		.loc 1 72 28
 698 0560 D7ED097A 		vldr.32	s15, [r7, #36]
 699 0564 67EEA77A 		vmul.f32	s15, s15, s15
 700              		.loc 1 72 23
 701 0568 77EE277A 		vadd.f32	s15, s14, s15
 702              		.loc 1 72 10
 703 056c 17EE900A 		vmov	r0, s15
 704 0570 FFF7FEFF 		bl	__aeabi_f2d
 705 0574 0246     		mov	r2, r0
 706 0576 0B46     		mov	r3, r1
 707 0578 43EC102B 		vmov	d0, r2, r3
 708 057c FFF7FEFF 		bl	sqrt
 709 0580 53EC102B 		vmov	r2, r3, d0
 710              		.loc 1 72 8
 711 0584 1046     		mov	r0, r2
 712 0586 1946     		mov	r1, r3
 713 0588 FFF7FEFF 		bl	__aeabi_d2f
 714 058c 0346     		mov	r3, r0	@ float
 715 058e 3B62     		str	r3, [r7, #32]	@ float
  73:./Hardware/Src/IMU.c **** 		_2bz = -_2q0Mx * QNum.q2 + _2q0My * QNum.q1 + Mz * q0q0 + _2q1Mx * QNum.q3 - Mz * q1q1 + _2q2 * M
 716              		.loc 1 73 10
 717 0590 D7ED237A 		vldr.32	s15, [r7, #140]
 718 0594 B1EE677A 		vneg.f32	s14, s15
 719              		.loc 1 73 24
 720 0598 804B     		ldr	r3, .L7
 721 059a D3ED027A 		vldr.32	s15, [r3, #8]
 722              		.loc 1 73 18
 723 059e 27EE277A 		vmul.f32	s14, s14, s15
 724              		.loc 1 73 43
 725 05a2 7E4B     		ldr	r3, .L7
 726 05a4 D3ED016A 		vldr.32	s13, [r3, #4]
 727              		.loc 1 73 37
 728 05a8 D7ED227A 		vldr.32	s15, [r7, #136]
 729 05ac 66EEA77A 		vmul.f32	s15, s13, s15
 730              		.loc 1 73 28
 731 05b0 37EE277A 		vadd.f32	s14, s14, s15
 732              		.loc 1 73 52
 733 05b4 D7ED2B6A 		vldr.32	s13, [r7, #172]
 734 05b8 D7ED167A 		vldr.32	s15, [r7, #88]
 735 05bc 66EEA77A 		vmul.f32	s15, s13, s15
 736              		.loc 1 73 47
 737 05c0 37EE277A 		vadd.f32	s14, s14, s15
 738              		.loc 1 73 74
 739 05c4 754B     		ldr	r3, .L7
 740 05c6 D3ED036A 		vldr.32	s13, [r3, #12]
 741              		.loc 1 73 68
 742 05ca D7ED207A 		vldr.32	s15, [r7, #128]
 743 05ce 66EEA77A 		vmul.f32	s15, s13, s15
 744              		.loc 1 73 59
 745 05d2 37EE277A 		vadd.f32	s14, s14, s15
 746              		.loc 1 73 83
 747 05d6 D7ED2B6A 		vldr.32	s13, [r7, #172]
 748 05da D7ED127A 		vldr.32	s15, [r7, #72]
 749 05de 66EEA77A 		vmul.f32	s15, s13, s15
 750              		.loc 1 73 78
 751 05e2 37EE677A 		vsub.f32	s14, s14, s15
 752              		.loc 1 73 97
ARM GAS  /tmp/ccGyVhXX.s 			page 15


 753 05e6 D7ED1D6A 		vldr.32	s13, [r7, #116]
 754 05ea D7ED2C7A 		vldr.32	s15, [r7, #176]
 755 05ee 66EEA76A 		vmul.f32	s13, s13, s15
 756              		.loc 1 73 108
 757 05f2 6A4B     		ldr	r3, .L7
 758 05f4 D3ED037A 		vldr.32	s15, [r3, #12]
 759              		.loc 1 73 102
 760 05f8 66EEA77A 		vmul.f32	s15, s13, s15
 761              		.loc 1 73 90
 762 05fc 37EE277A 		vadd.f32	s14, s14, s15
 763              		.loc 1 73 117
 764 0600 D7ED2B6A 		vldr.32	s13, [r7, #172]
 765 0604 D7ED0E7A 		vldr.32	s15, [r7, #56]
 766 0608 66EEA77A 		vmul.f32	s15, s13, s15
 767              		.loc 1 73 112
 768 060c 37EE677A 		vsub.f32	s14, s14, s15
 769              		.loc 1 73 129
 770 0610 D7ED2B6A 		vldr.32	s13, [r7, #172]
 771 0614 D7ED0C7A 		vldr.32	s15, [r7, #48]
 772 0618 66EEA77A 		vmul.f32	s15, s13, s15
 773              		.loc 1 73 8
 774 061c 77EE277A 		vadd.f32	s15, s14, s15
 775 0620 C7ED077A 		vstr.32	s15, [r7, #28]
  74:./Hardware/Src/IMU.c **** 		_4bx = 2.0f * _2bx;
 776              		.loc 1 74 8
 777 0624 D7ED087A 		vldr.32	s15, [r7, #32]
 778 0628 77EEA77A 		vadd.f32	s15, s15, s15
 779 062c C7ED067A 		vstr.32	s15, [r7, #24]
  75:./Hardware/Src/IMU.c **** 		_4bz = 2.0f * _2bz;
 780              		.loc 1 75 8
 781 0630 D7ED077A 		vldr.32	s15, [r7, #28]
 782 0634 77EEA77A 		vadd.f32	s15, s15, s15
 783 0638 C7ED057A 		vstr.32	s15, [r7, #20]
  76:./Hardware/Src/IMU.c ****    
  77:./Hardware/Src/IMU.c **** //加速度矫正误差
  78:./Hardware/Src/IMU.c **** 		e0 = -_2q2 * (2.0f * q1q3 - _2q0q2 - Ax) + _2q1 * (2.0f * q0q1 + _2q2q3 - Ay) - _2bz * QNum.q2 * 
 784              		.loc 1 78 8
 785 063c D7ED1D7A 		vldr.32	s15, [r7, #116]
 786 0640 B1EE677A 		vneg.f32	s14, s15
 787              		.loc 1 78 22
 788 0644 D7ED0F7A 		vldr.32	s15, [r7, #60]
 789 0648 77EEA76A 		vadd.f32	s13, s15, s15
 790              		.loc 1 78 29
 791 064c D7ED137A 		vldr.32	s15, [r7, #76]
 792 0650 76EEE76A 		vsub.f32	s13, s13, s15
 793              		.loc 1 78 38
 794 0654 D7ED277A 		vldr.32	s15, [r7, #156]
 795 0658 76EEE77A 		vsub.f32	s15, s13, s15
 796              		.loc 1 78 14
 797 065c 27EE277A 		vmul.f32	s14, s14, s15
 798              		.loc 1 78 59
 799 0660 D7ED157A 		vldr.32	s15, [r7, #84]
 800 0664 77EEA76A 		vadd.f32	s13, s15, s15
 801              		.loc 1 78 66
 802 0668 D7ED0B7A 		vldr.32	s15, [r7, #44]
 803 066c 76EEA76A 		vadd.f32	s13, s13, s15
 804              		.loc 1 78 75
ARM GAS  /tmp/ccGyVhXX.s 			page 16


 805 0670 D7ED267A 		vldr.32	s15, [r7, #152]
 806 0674 76EEE76A 		vsub.f32	s13, s13, s15
 807              		.loc 1 78 51
 808 0678 D7ED1E7A 		vldr.32	s15, [r7, #120]
 809 067c 66EEA77A 		vmul.f32	s15, s13, s15
 810              		.loc 1 78 44
 811 0680 37EE277A 		vadd.f32	s14, s14, s15
 812              		.loc 1 78 94
 813 0684 454B     		ldr	r3, .L7
 814 0686 D3ED026A 		vldr.32	s13, [r3, #8]
 815              		.loc 1 78 88
 816 068a D7ED077A 		vldr.32	s15, [r7, #28]
 817 068e 66EEA76A 		vmul.f32	s13, s13, s15
 818              		.loc 1 78 114
 819 0692 B6EE006A 		vmov.f32	s12, #5.0e-1
 820 0696 D7ED0E7A 		vldr.32	s15, [r7, #56]
 821 069a 36EE676A 		vsub.f32	s12, s12, s15
 822              		.loc 1 78 121
 823 069e D7ED0C7A 		vldr.32	s15, [r7, #48]
 824 06a2 36EE676A 		vsub.f32	s12, s12, s15
 825              		.loc 1 78 106
 826 06a6 D7ED087A 		vldr.32	s15, [r7, #32]
 827 06aa 26EE276A 		vmul.f32	s12, s12, s15
 828              		.loc 1 78 144
 829 06ae D7ED0F5A 		vldr.32	s11, [r7, #60]
 830 06b2 D7ED147A 		vldr.32	s15, [r7, #80]
 831 06b6 75EEE75A 		vsub.f32	s11, s11, s15
 832              		.loc 1 78 136
 833 06ba D7ED077A 		vldr.32	s15, [r7, #28]
 834 06be 65EEA77A 		vmul.f32	s15, s11, s15
 835              		.loc 1 78 129
 836 06c2 36EE276A 		vadd.f32	s12, s12, s15
 837              		.loc 1 78 152
 838 06c6 D7ED2D7A 		vldr.32	s15, [r7, #180]
 839 06ca 76EE677A 		vsub.f32	s15, s12, s15
 840              		.loc 1 78 98
 841 06ce 66EEA77A 		vmul.f32	s15, s13, s15
 842              		.loc 1 78 81
 843 06d2 37EE677A 		vsub.f32	s14, s14, s15
 844              		.loc 1 78 161
 845 06d6 D7ED087A 		vldr.32	s15, [r7, #32]
 846 06da F1EE676A 		vneg.f32	s13, s15
 847              		.loc 1 78 173
 848 06de 2F4B     		ldr	r3, .L7
 849 06e0 D3ED037A 		vldr.32	s15, [r3, #12]
 850              		.loc 1 78 167
 851 06e4 66EEA76A 		vmul.f32	s13, s13, s15
 852              		.loc 1 78 190
 853 06e8 2C4B     		ldr	r3, .L7
 854 06ea 93ED016A 		vldr.32	s12, [r3, #4]
 855              		.loc 1 78 184
 856 06ee D7ED077A 		vldr.32	s15, [r7, #28]
 857 06f2 66EE277A 		vmul.f32	s15, s12, s15
 858              		.loc 1 78 177
 859 06f6 76EEA76A 		vadd.f32	s13, s13, s15
 860              		.loc 1 78 211
 861 06fa 97ED116A 		vldr.32	s12, [r7, #68]
ARM GAS  /tmp/ccGyVhXX.s 			page 17


 862 06fe D7ED107A 		vldr.32	s15, [r7, #64]
 863 0702 36EE676A 		vsub.f32	s12, s12, s15
 864              		.loc 1 78 203
 865 0706 D7ED087A 		vldr.32	s15, [r7, #32]
 866 070a 26EE276A 		vmul.f32	s12, s12, s15
 867              		.loc 1 78 234
 868 070e D7ED155A 		vldr.32	s11, [r7, #84]
 869 0712 D7ED0D7A 		vldr.32	s15, [r7, #52]
 870 0716 75EEA75A 		vadd.f32	s11, s11, s15
 871              		.loc 1 78 226
 872 071a D7ED077A 		vldr.32	s15, [r7, #28]
 873 071e 65EEA77A 		vmul.f32	s15, s11, s15
 874              		.loc 1 78 219
 875 0722 36EE276A 		vadd.f32	s12, s12, s15
 876              		.loc 1 78 242
 877 0726 D7ED2C7A 		vldr.32	s15, [r7, #176]
 878 072a 76EE677A 		vsub.f32	s15, s12, s15
 879              		.loc 1 78 195
 880 072e 66EEA77A 		vmul.f32	s15, s13, s15
 881              		.loc 1 78 158
 882 0732 37EE277A 		vadd.f32	s14, s14, s15
 883              		.loc 1 78 261
 884 0736 194B     		ldr	r3, .L7
 885 0738 D3ED026A 		vldr.32	s13, [r3, #8]
 886              		.loc 1 78 255
 887 073c D7ED087A 		vldr.32	s15, [r7, #32]
 888 0740 66EEA76A 		vmul.f32	s13, s13, s15
 889              		.loc 1 78 281
 890 0744 97ED146A 		vldr.32	s12, [r7, #80]
 891 0748 D7ED0F7A 		vldr.32	s15, [r7, #60]
 892 074c 36EE276A 		vadd.f32	s12, s12, s15
 893              		.loc 1 78 273
 894 0750 D7ED087A 		vldr.32	s15, [r7, #32]
 895 0754 26EE276A 		vmul.f32	s12, s12, s15
 896              		.loc 1 78 304
 897 0758 F6EE005A 		vmov.f32	s11, #5.0e-1
 898 075c D7ED127A 		vldr.32	s15, [r7, #72]
 899 0760 75EEE75A 		vsub.f32	s11, s11, s15
 900              		.loc 1 78 311
 901 0764 D7ED0E7A 		vldr.32	s15, [r7, #56]
 902 0768 75EEE75A 		vsub.f32	s11, s11, s15
 903              		.loc 1 78 296
 904 076c D7ED077A 		vldr.32	s15, [r7, #28]
 905 0770 65EEA77A 		vmul.f32	s15, s11, s15
 906              		.loc 1 78 289
 907 0774 36EE276A 		vadd.f32	s12, s12, s15
 908              		.loc 1 78 319
 909 0778 D7ED2B7A 		vldr.32	s15, [r7, #172]
 910 077c 76EE677A 		vsub.f32	s15, s12, s15
 911              		.loc 1 78 265
 912 0780 66EEA77A 		vmul.f32	s15, s13, s15
 913              		.loc 1 78 248
 914 0784 77EE277A 		vadd.f32	s15, s14, s15
 915              		.loc 1 78 6
 916 0788 054B     		ldr	r3, .L7+4
 917 078a C3ED007A 		vstr.32	s15, [r3]
  79:./Hardware/Src/IMU.c **** 		e1 = _2q3 * (2.0f * q1q3 - _2q0q2 - Ax) + _2q0 * (2.0f * q0q1 + _2q2q3 - Ay) - 4.0f * QNum.q1 * (
ARM GAS  /tmp/ccGyVhXX.s 			page 18


 918              		.loc 1 79 21
 919 078e D7ED0F7A 		vldr.32	s15, [r7, #60]
 920 0792 37EEA77A 		vadd.f32	s14, s15, s15
 921              		.loc 1 79 28
 922 0796 D7ED137A 		vldr.32	s15, [r7, #76]
 923 079a 03E0     		b	.L8
 924              	.L9:
 925              		.align	2
 926              	.L7:
 927 079c 00000000 		.word	QNum
 928 07a0 00000000 		.word	e0
 929              	.L8:
 930 07a4 37EE677A 		vsub.f32	s14, s14, s15
 931              		.loc 1 79 37
 932 07a8 D7ED277A 		vldr.32	s15, [r7, #156]
 933 07ac 37EE677A 		vsub.f32	s14, s14, s15
 934              		.loc 1 79 13
 935 07b0 D7ED1C7A 		vldr.32	s15, [r7, #112]
 936 07b4 27EE277A 		vmul.f32	s14, s14, s15
 937              		.loc 1 79 58
 938 07b8 D7ED157A 		vldr.32	s15, [r7, #84]
 939 07bc 77EEA76A 		vadd.f32	s13, s15, s15
 940              		.loc 1 79 65
 941 07c0 D7ED0B7A 		vldr.32	s15, [r7, #44]
 942 07c4 76EEA76A 		vadd.f32	s13, s13, s15
 943              		.loc 1 79 74
 944 07c8 D7ED267A 		vldr.32	s15, [r7, #152]
 945 07cc 76EEE76A 		vsub.f32	s13, s13, s15
 946              		.loc 1 79 50
 947 07d0 D7ED1F7A 		vldr.32	s15, [r7, #124]
 948 07d4 66EEA77A 		vmul.f32	s15, s13, s15
 949              		.loc 1 79 43
 950 07d8 37EE277A 		vadd.f32	s14, s14, s15
 951              		.loc 1 79 93
 952 07dc F34B     		ldr	r3, .L10
 953 07de D3ED017A 		vldr.32	s15, [r3, #4]
 954              		.loc 1 79 87
 955 07e2 F1EE006A 		vmov.f32	s13, #4.0e+0
 956 07e6 67EEA66A 		vmul.f32	s13, s15, s13
 957              		.loc 1 79 109
 958 07ea D7ED127A 		vldr.32	s15, [r7, #72]
 959 07ee 77EEA77A 		vadd.f32	s15, s15, s15
 960              		.loc 1 79 102
 961 07f2 B7EE006A 		vmov.f32	s12, #1.0e+0
 962 07f6 36EE676A 		vsub.f32	s12, s12, s15
 963              		.loc 1 79 123
 964 07fa D7ED0E7A 		vldr.32	s15, [r7, #56]
 965 07fe 77EEA77A 		vadd.f32	s15, s15, s15
 966              		.loc 1 79 116
 967 0802 36EE676A 		vsub.f32	s12, s12, s15
 968              		.loc 1 79 130
 969 0806 D7ED257A 		vldr.32	s15, [r7, #148]
 970 080a 76EE677A 		vsub.f32	s15, s12, s15
 971              		.loc 1 79 97
 972 080e 66EEA77A 		vmul.f32	s15, s13, s15
 973              		.loc 1 79 80
 974 0812 37EE677A 		vsub.f32	s14, s14, s15
ARM GAS  /tmp/ccGyVhXX.s 			page 19


 975              		.loc 1 79 149
 976 0816 E54B     		ldr	r3, .L10
 977 0818 D3ED036A 		vldr.32	s13, [r3, #12]
 978              		.loc 1 79 143
 979 081c D7ED077A 		vldr.32	s15, [r7, #28]
 980 0820 66EEA76A 		vmul.f32	s13, s13, s15
 981              		.loc 1 79 169
 982 0824 B6EE006A 		vmov.f32	s12, #5.0e-1
 983 0828 D7ED0E7A 		vldr.32	s15, [r7, #56]
 984 082c 36EE676A 		vsub.f32	s12, s12, s15
 985              		.loc 1 79 176
 986 0830 D7ED0C7A 		vldr.32	s15, [r7, #48]
 987 0834 36EE676A 		vsub.f32	s12, s12, s15
 988              		.loc 1 79 161
 989 0838 D7ED087A 		vldr.32	s15, [r7, #32]
 990 083c 26EE276A 		vmul.f32	s12, s12, s15
 991              		.loc 1 79 199
 992 0840 D7ED0F5A 		vldr.32	s11, [r7, #60]
 993 0844 D7ED147A 		vldr.32	s15, [r7, #80]
 994 0848 75EEE75A 		vsub.f32	s11, s11, s15
 995              		.loc 1 79 191
 996 084c D7ED077A 		vldr.32	s15, [r7, #28]
 997 0850 65EEA77A 		vmul.f32	s15, s11, s15
 998              		.loc 1 79 184
 999 0854 36EE276A 		vadd.f32	s12, s12, s15
 1000              		.loc 1 79 207
 1001 0858 D7ED2D7A 		vldr.32	s15, [r7, #180]
 1002 085c 76EE677A 		vsub.f32	s15, s12, s15
 1003              		.loc 1 79 153
 1004 0860 66EEA77A 		vmul.f32	s15, s13, s15
 1005              		.loc 1 79 136
 1006 0864 37EE277A 		vadd.f32	s14, s14, s15
 1007              		.loc 1 79 227
 1008 0868 D04B     		ldr	r3, .L10
 1009 086a D3ED026A 		vldr.32	s13, [r3, #8]
 1010              		.loc 1 79 221
 1011 086e D7ED087A 		vldr.32	s15, [r7, #32]
 1012 0872 66EEA76A 		vmul.f32	s13, s13, s15
 1013              		.loc 1 79 244
 1014 0876 CD4B     		ldr	r3, .L10
 1015 0878 93ED006A 		vldr.32	s12, [r3]
 1016              		.loc 1 79 238
 1017 087c D7ED077A 		vldr.32	s15, [r7, #28]
 1018 0880 66EE277A 		vmul.f32	s15, s12, s15
 1019              		.loc 1 79 231
 1020 0884 76EEA76A 		vadd.f32	s13, s13, s15
 1021              		.loc 1 79 265
 1022 0888 97ED116A 		vldr.32	s12, [r7, #68]
 1023 088c D7ED107A 		vldr.32	s15, [r7, #64]
 1024 0890 36EE676A 		vsub.f32	s12, s12, s15
 1025              		.loc 1 79 257
 1026 0894 D7ED087A 		vldr.32	s15, [r7, #32]
 1027 0898 26EE276A 		vmul.f32	s12, s12, s15
 1028              		.loc 1 79 288
 1029 089c D7ED155A 		vldr.32	s11, [r7, #84]
 1030 08a0 D7ED0D7A 		vldr.32	s15, [r7, #52]
 1031 08a4 75EEA75A 		vadd.f32	s11, s11, s15
ARM GAS  /tmp/ccGyVhXX.s 			page 20


 1032              		.loc 1 79 280
 1033 08a8 D7ED077A 		vldr.32	s15, [r7, #28]
 1034 08ac 65EEA77A 		vmul.f32	s15, s11, s15
 1035              		.loc 1 79 273
 1036 08b0 36EE276A 		vadd.f32	s12, s12, s15
 1037              		.loc 1 79 296
 1038 08b4 D7ED2C7A 		vldr.32	s15, [r7, #176]
 1039 08b8 76EE677A 		vsub.f32	s15, s12, s15
 1040              		.loc 1 79 249
 1041 08bc 66EEA77A 		vmul.f32	s15, s13, s15
 1042              		.loc 1 79 213
 1043 08c0 37EE277A 		vadd.f32	s14, s14, s15
 1044              		.loc 1 79 316
 1045 08c4 B94B     		ldr	r3, .L10
 1046 08c6 D3ED036A 		vldr.32	s13, [r3, #12]
 1047              		.loc 1 79 310
 1048 08ca D7ED087A 		vldr.32	s15, [r7, #32]
 1049 08ce 66EEA76A 		vmul.f32	s13, s13, s15
 1050              		.loc 1 79 333
 1051 08d2 B64B     		ldr	r3, .L10
 1052 08d4 93ED016A 		vldr.32	s12, [r3, #4]
 1053              		.loc 1 79 327
 1054 08d8 D7ED057A 		vldr.32	s15, [r7, #20]
 1055 08dc 66EE277A 		vmul.f32	s15, s12, s15
 1056              		.loc 1 79 320
 1057 08e0 76EEE76A 		vsub.f32	s13, s13, s15
 1058              		.loc 1 79 354
 1059 08e4 97ED146A 		vldr.32	s12, [r7, #80]
 1060 08e8 D7ED0F7A 		vldr.32	s15, [r7, #60]
 1061 08ec 36EE276A 		vadd.f32	s12, s12, s15
 1062              		.loc 1 79 346
 1063 08f0 D7ED087A 		vldr.32	s15, [r7, #32]
 1064 08f4 26EE276A 		vmul.f32	s12, s12, s15
 1065              		.loc 1 79 377
 1066 08f8 F6EE005A 		vmov.f32	s11, #5.0e-1
 1067 08fc D7ED127A 		vldr.32	s15, [r7, #72]
 1068 0900 75EEE75A 		vsub.f32	s11, s11, s15
 1069              		.loc 1 79 384
 1070 0904 D7ED0E7A 		vldr.32	s15, [r7, #56]
 1071 0908 75EEE75A 		vsub.f32	s11, s11, s15
 1072              		.loc 1 79 369
 1073 090c D7ED077A 		vldr.32	s15, [r7, #28]
 1074 0910 65EEA77A 		vmul.f32	s15, s11, s15
 1075              		.loc 1 79 362
 1076 0914 36EE276A 		vadd.f32	s12, s12, s15
 1077              		.loc 1 79 392
 1078 0918 D7ED2B7A 		vldr.32	s15, [r7, #172]
 1079 091c 76EE677A 		vsub.f32	s15, s12, s15
 1080              		.loc 1 79 338
 1081 0920 66EEA77A 		vmul.f32	s15, s13, s15
 1082              		.loc 1 79 302
 1083 0924 77EE277A 		vadd.f32	s15, s14, s15
 1084              		.loc 1 79 6
 1085 0928 A14B     		ldr	r3, .L10+4
 1086 092a C3ED007A 		vstr.32	s15, [r3]
  80:./Hardware/Src/IMU.c **** 		e2 = -_2q0 * (2.0f * q1q3 - _2q0q2 - Ax) + _2q3 * (2.0f * q0q1 + _2q2q3 - Ay) - 4.0f * QNum.q2 * 
 1087              		.loc 1 80 8
ARM GAS  /tmp/ccGyVhXX.s 			page 21


 1088 092e D7ED1F7A 		vldr.32	s15, [r7, #124]
 1089 0932 B1EE677A 		vneg.f32	s14, s15
 1090              		.loc 1 80 22
 1091 0936 D7ED0F7A 		vldr.32	s15, [r7, #60]
 1092 093a 77EEA76A 		vadd.f32	s13, s15, s15
 1093              		.loc 1 80 29
 1094 093e D7ED137A 		vldr.32	s15, [r7, #76]
 1095 0942 76EEE76A 		vsub.f32	s13, s13, s15
 1096              		.loc 1 80 38
 1097 0946 D7ED277A 		vldr.32	s15, [r7, #156]
 1098 094a 76EEE77A 		vsub.f32	s15, s13, s15
 1099              		.loc 1 80 14
 1100 094e 27EE277A 		vmul.f32	s14, s14, s15
 1101              		.loc 1 80 59
 1102 0952 D7ED157A 		vldr.32	s15, [r7, #84]
 1103 0956 77EEA76A 		vadd.f32	s13, s15, s15
 1104              		.loc 1 80 66
 1105 095a D7ED0B7A 		vldr.32	s15, [r7, #44]
 1106 095e 76EEA76A 		vadd.f32	s13, s13, s15
 1107              		.loc 1 80 75
 1108 0962 D7ED267A 		vldr.32	s15, [r7, #152]
 1109 0966 76EEE76A 		vsub.f32	s13, s13, s15
 1110              		.loc 1 80 51
 1111 096a D7ED1C7A 		vldr.32	s15, [r7, #112]
 1112 096e 66EEA77A 		vmul.f32	s15, s13, s15
 1113              		.loc 1 80 44
 1114 0972 37EE277A 		vadd.f32	s14, s14, s15
 1115              		.loc 1 80 94
 1116 0976 8D4B     		ldr	r3, .L10
 1117 0978 D3ED027A 		vldr.32	s15, [r3, #8]
 1118              		.loc 1 80 88
 1119 097c F1EE006A 		vmov.f32	s13, #4.0e+0
 1120 0980 67EEA66A 		vmul.f32	s13, s15, s13
 1121              		.loc 1 80 110
 1122 0984 D7ED127A 		vldr.32	s15, [r7, #72]
 1123 0988 77EEA77A 		vadd.f32	s15, s15, s15
 1124              		.loc 1 80 103
 1125 098c B7EE006A 		vmov.f32	s12, #1.0e+0
 1126 0990 36EE676A 		vsub.f32	s12, s12, s15
 1127              		.loc 1 80 124
 1128 0994 D7ED0E7A 		vldr.32	s15, [r7, #56]
 1129 0998 77EEA77A 		vadd.f32	s15, s15, s15
 1130              		.loc 1 80 117
 1131 099c 36EE676A 		vsub.f32	s12, s12, s15
 1132              		.loc 1 80 131
 1133 09a0 D7ED257A 		vldr.32	s15, [r7, #148]
 1134 09a4 76EE677A 		vsub.f32	s15, s12, s15
 1135              		.loc 1 80 98
 1136 09a8 66EEA77A 		vmul.f32	s15, s13, s15
 1137              		.loc 1 80 81
 1138 09ac 37EE677A 		vsub.f32	s14, s14, s15
 1139              		.loc 1 80 140
 1140 09b0 D7ED067A 		vldr.32	s15, [r7, #24]
 1141 09b4 F1EE676A 		vneg.f32	s13, s15
 1142              		.loc 1 80 152
 1143 09b8 7C4B     		ldr	r3, .L10
 1144 09ba D3ED027A 		vldr.32	s15, [r3, #8]
ARM GAS  /tmp/ccGyVhXX.s 			page 22


 1145              		.loc 1 80 146
 1146 09be 66EEA76A 		vmul.f32	s13, s13, s15
 1147              		.loc 1 80 170
 1148 09c2 7A4B     		ldr	r3, .L10
 1149 09c4 93ED006A 		vldr.32	s12, [r3]
 1150              		.loc 1 80 163
 1151 09c8 D7ED077A 		vldr.32	s15, [r7, #28]
 1152 09cc 66EE277A 		vmul.f32	s15, s12, s15
 1153              		.loc 1 80 156
 1154 09d0 76EEE76A 		vsub.f32	s13, s13, s15
 1155              		.loc 1 80 191
 1156 09d4 B6EE006A 		vmov.f32	s12, #5.0e-1
 1157 09d8 D7ED0E7A 		vldr.32	s15, [r7, #56]
 1158 09dc 36EE676A 		vsub.f32	s12, s12, s15
 1159              		.loc 1 80 198
 1160 09e0 D7ED0C7A 		vldr.32	s15, [r7, #48]
 1161 09e4 36EE676A 		vsub.f32	s12, s12, s15
 1162              		.loc 1 80 183
 1163 09e8 D7ED087A 		vldr.32	s15, [r7, #32]
 1164 09ec 26EE276A 		vmul.f32	s12, s12, s15
 1165              		.loc 1 80 221
 1166 09f0 D7ED0F5A 		vldr.32	s11, [r7, #60]
 1167 09f4 D7ED147A 		vldr.32	s15, [r7, #80]
 1168 09f8 75EEE75A 		vsub.f32	s11, s11, s15
 1169              		.loc 1 80 213
 1170 09fc D7ED077A 		vldr.32	s15, [r7, #28]
 1171 0a00 65EEA77A 		vmul.f32	s15, s11, s15
 1172              		.loc 1 80 206
 1173 0a04 36EE276A 		vadd.f32	s12, s12, s15
 1174              		.loc 1 80 229
 1175 0a08 D7ED2D7A 		vldr.32	s15, [r7, #180]
 1176 0a0c 76EE677A 		vsub.f32	s15, s12, s15
 1177              		.loc 1 80 175
 1178 0a10 66EEA77A 		vmul.f32	s15, s13, s15
 1179              		.loc 1 80 137
 1180 0a14 37EE277A 		vadd.f32	s14, s14, s15
 1181              		.loc 1 80 249
 1182 0a18 644B     		ldr	r3, .L10
 1183 0a1a D3ED016A 		vldr.32	s13, [r3, #4]
 1184              		.loc 1 80 243
 1185 0a1e D7ED087A 		vldr.32	s15, [r7, #32]
 1186 0a22 66EEA76A 		vmul.f32	s13, s13, s15
 1187              		.loc 1 80 266
 1188 0a26 614B     		ldr	r3, .L10
 1189 0a28 93ED036A 		vldr.32	s12, [r3, #12]
 1190              		.loc 1 80 260
 1191 0a2c D7ED077A 		vldr.32	s15, [r7, #28]
 1192 0a30 66EE277A 		vmul.f32	s15, s12, s15
 1193              		.loc 1 80 253
 1194 0a34 76EEA76A 		vadd.f32	s13, s13, s15
 1195              		.loc 1 80 287
 1196 0a38 97ED116A 		vldr.32	s12, [r7, #68]
 1197 0a3c D7ED107A 		vldr.32	s15, [r7, #64]
 1198 0a40 36EE676A 		vsub.f32	s12, s12, s15
 1199              		.loc 1 80 279
 1200 0a44 D7ED087A 		vldr.32	s15, [r7, #32]
 1201 0a48 26EE276A 		vmul.f32	s12, s12, s15
ARM GAS  /tmp/ccGyVhXX.s 			page 23


 1202              		.loc 1 80 310
 1203 0a4c D7ED155A 		vldr.32	s11, [r7, #84]
 1204 0a50 D7ED0D7A 		vldr.32	s15, [r7, #52]
 1205 0a54 75EEA75A 		vadd.f32	s11, s11, s15
 1206              		.loc 1 80 302
 1207 0a58 D7ED077A 		vldr.32	s15, [r7, #28]
 1208 0a5c 65EEA77A 		vmul.f32	s15, s11, s15
 1209              		.loc 1 80 295
 1210 0a60 36EE276A 		vadd.f32	s12, s12, s15
 1211              		.loc 1 80 318
 1212 0a64 D7ED2C7A 		vldr.32	s15, [r7, #176]
 1213 0a68 76EE677A 		vsub.f32	s15, s12, s15
 1214              		.loc 1 80 271
 1215 0a6c 66EEA77A 		vmul.f32	s15, s13, s15
 1216              		.loc 1 80 235
 1217 0a70 37EE277A 		vadd.f32	s14, s14, s15
 1218              		.loc 1 80 338
 1219 0a74 4D4B     		ldr	r3, .L10
 1220 0a76 D3ED006A 		vldr.32	s13, [r3]
 1221              		.loc 1 80 332
 1222 0a7a D7ED087A 		vldr.32	s15, [r7, #32]
 1223 0a7e 66EEA76A 		vmul.f32	s13, s13, s15
 1224              		.loc 1 80 355
 1225 0a82 4A4B     		ldr	r3, .L10
 1226 0a84 93ED026A 		vldr.32	s12, [r3, #8]
 1227              		.loc 1 80 349
 1228 0a88 D7ED057A 		vldr.32	s15, [r7, #20]
 1229 0a8c 66EE277A 		vmul.f32	s15, s12, s15
 1230              		.loc 1 80 342
 1231 0a90 76EEE76A 		vsub.f32	s13, s13, s15
 1232              		.loc 1 80 376
 1233 0a94 97ED146A 		vldr.32	s12, [r7, #80]
 1234 0a98 D7ED0F7A 		vldr.32	s15, [r7, #60]
 1235 0a9c 36EE276A 		vadd.f32	s12, s12, s15
 1236              		.loc 1 80 368
 1237 0aa0 D7ED087A 		vldr.32	s15, [r7, #32]
 1238 0aa4 26EE276A 		vmul.f32	s12, s12, s15
 1239              		.loc 1 80 399
 1240 0aa8 F6EE005A 		vmov.f32	s11, #5.0e-1
 1241 0aac D7ED127A 		vldr.32	s15, [r7, #72]
 1242 0ab0 75EEE75A 		vsub.f32	s11, s11, s15
 1243              		.loc 1 80 406
 1244 0ab4 D7ED0E7A 		vldr.32	s15, [r7, #56]
 1245 0ab8 75EEE75A 		vsub.f32	s11, s11, s15
 1246              		.loc 1 80 391
 1247 0abc D7ED077A 		vldr.32	s15, [r7, #28]
 1248 0ac0 65EEA77A 		vmul.f32	s15, s11, s15
 1249              		.loc 1 80 384
 1250 0ac4 36EE276A 		vadd.f32	s12, s12, s15
 1251              		.loc 1 80 414
 1252 0ac8 D7ED2B7A 		vldr.32	s15, [r7, #172]
 1253 0acc 76EE677A 		vsub.f32	s15, s12, s15
 1254              		.loc 1 80 360
 1255 0ad0 66EEA77A 		vmul.f32	s15, s13, s15
 1256              		.loc 1 80 324
 1257 0ad4 77EE277A 		vadd.f32	s15, s14, s15
 1258              		.loc 1 80 6
ARM GAS  /tmp/ccGyVhXX.s 			page 24


 1259 0ad8 364B     		ldr	r3, .L10+8
 1260 0ada C3ED007A 		vstr.32	s15, [r3]
  81:./Hardware/Src/IMU.c **** 		e3 = _2q1 * (2.0f * q1q3 - _2q0q2 - Ax) + _2q2 * (2.0f * q0q1 + _2q2q3 - Ay) + (-_4bx * QNum.q3 +
 1261              		.loc 1 81 21
 1262 0ade D7ED0F7A 		vldr.32	s15, [r7, #60]
 1263 0ae2 37EEA77A 		vadd.f32	s14, s15, s15
 1264              		.loc 1 81 28
 1265 0ae6 D7ED137A 		vldr.32	s15, [r7, #76]
 1266 0aea 37EE677A 		vsub.f32	s14, s14, s15
 1267              		.loc 1 81 37
 1268 0aee D7ED277A 		vldr.32	s15, [r7, #156]
 1269 0af2 37EE677A 		vsub.f32	s14, s14, s15
 1270              		.loc 1 81 13
 1271 0af6 D7ED1E7A 		vldr.32	s15, [r7, #120]
 1272 0afa 27EE277A 		vmul.f32	s14, s14, s15
 1273              		.loc 1 81 58
 1274 0afe D7ED157A 		vldr.32	s15, [r7, #84]
 1275 0b02 77EEA76A 		vadd.f32	s13, s15, s15
 1276              		.loc 1 81 65
 1277 0b06 D7ED0B7A 		vldr.32	s15, [r7, #44]
 1278 0b0a 76EEA76A 		vadd.f32	s13, s13, s15
 1279              		.loc 1 81 74
 1280 0b0e D7ED267A 		vldr.32	s15, [r7, #152]
 1281 0b12 76EEE76A 		vsub.f32	s13, s13, s15
 1282              		.loc 1 81 50
 1283 0b16 D7ED1D7A 		vldr.32	s15, [r7, #116]
 1284 0b1a 66EEA77A 		vmul.f32	s15, s13, s15
 1285              		.loc 1 81 43
 1286 0b1e 37EE277A 		vadd.f32	s14, s14, s15
 1287              		.loc 1 81 83
 1288 0b22 D7ED067A 		vldr.32	s15, [r7, #24]
 1289 0b26 F1EE676A 		vneg.f32	s13, s15
 1290              		.loc 1 81 95
 1291 0b2a 204B     		ldr	r3, .L10
 1292 0b2c D3ED037A 		vldr.32	s15, [r3, #12]
 1293              		.loc 1 81 89
 1294 0b30 66EEA76A 		vmul.f32	s13, s13, s15
 1295              		.loc 1 81 112
 1296 0b34 1D4B     		ldr	r3, .L10
 1297 0b36 93ED016A 		vldr.32	s12, [r3, #4]
 1298              		.loc 1 81 106
 1299 0b3a D7ED077A 		vldr.32	s15, [r7, #28]
 1300 0b3e 66EE277A 		vmul.f32	s15, s12, s15
 1301              		.loc 1 81 99
 1302 0b42 76EEA76A 		vadd.f32	s13, s13, s15
 1303              		.loc 1 81 133
 1304 0b46 B6EE006A 		vmov.f32	s12, #5.0e-1
 1305 0b4a D7ED0E7A 		vldr.32	s15, [r7, #56]
 1306 0b4e 36EE676A 		vsub.f32	s12, s12, s15
 1307              		.loc 1 81 140
 1308 0b52 D7ED0C7A 		vldr.32	s15, [r7, #48]
 1309 0b56 36EE676A 		vsub.f32	s12, s12, s15
 1310              		.loc 1 81 125
 1311 0b5a D7ED087A 		vldr.32	s15, [r7, #32]
 1312 0b5e 26EE276A 		vmul.f32	s12, s12, s15
 1313              		.loc 1 81 163
 1314 0b62 D7ED0F5A 		vldr.32	s11, [r7, #60]
ARM GAS  /tmp/ccGyVhXX.s 			page 25


 1315 0b66 D7ED147A 		vldr.32	s15, [r7, #80]
 1316 0b6a 75EEE75A 		vsub.f32	s11, s11, s15
 1317              		.loc 1 81 155
 1318 0b6e D7ED077A 		vldr.32	s15, [r7, #28]
 1319 0b72 65EEA77A 		vmul.f32	s15, s11, s15
 1320              		.loc 1 81 148
 1321 0b76 36EE276A 		vadd.f32	s12, s12, s15
 1322              		.loc 1 81 171
 1323 0b7a D7ED2D7A 		vldr.32	s15, [r7, #180]
 1324 0b7e 76EE677A 		vsub.f32	s15, s12, s15
 1325              		.loc 1 81 117
 1326 0b82 66EEA77A 		vmul.f32	s15, s13, s15
 1327              		.loc 1 81 80
 1328 0b86 37EE277A 		vadd.f32	s14, s14, s15
 1329              		.loc 1 81 180
 1330 0b8a D7ED087A 		vldr.32	s15, [r7, #32]
 1331 0b8e F1EE676A 		vneg.f32	s13, s15
 1332              		.loc 1 81 193
 1333 0b92 064B     		ldr	r3, .L10
 1334 0b94 D3ED007A 		vldr.32	s15, [r3]
 1335              		.loc 1 81 186
 1336 0b98 66EEA76A 		vmul.f32	s13, s13, s15
 1337              		.loc 1 81 210
 1338 0b9c 034B     		ldr	r3, .L10
 1339 0b9e 93ED026A 		vldr.32	s12, [r3, #8]
 1340              		.loc 1 81 204
 1341 0ba2 D7ED077A 		vldr.32	s15, [r7, #28]
 1342 0ba6 66EE277A 		vmul.f32	s15, s12, s15
 1343 0baa 05E0     		b	.L11
 1344              	.L12:
 1345              		.align	2
 1346              	.L10:
 1347 0bac 00000000 		.word	QNum
 1348 0bb0 00000000 		.word	e1
 1349 0bb4 00000000 		.word	e2
 1350              	.L11:
 1351              		.loc 1 81 197
 1352 0bb8 76EEA76A 		vadd.f32	s13, s13, s15
 1353              		.loc 1 81 231
 1354 0bbc 97ED116A 		vldr.32	s12, [r7, #68]
 1355 0bc0 D7ED107A 		vldr.32	s15, [r7, #64]
 1356 0bc4 36EE676A 		vsub.f32	s12, s12, s15
 1357              		.loc 1 81 223
 1358 0bc8 D7ED087A 		vldr.32	s15, [r7, #32]
 1359 0bcc 26EE276A 		vmul.f32	s12, s12, s15
 1360              		.loc 1 81 254
 1361 0bd0 D7ED155A 		vldr.32	s11, [r7, #84]
 1362 0bd4 D7ED0D7A 		vldr.32	s15, [r7, #52]
 1363 0bd8 75EEA75A 		vadd.f32	s11, s11, s15
 1364              		.loc 1 81 246
 1365 0bdc D7ED077A 		vldr.32	s15, [r7, #28]
 1366 0be0 65EEA77A 		vmul.f32	s15, s11, s15
 1367              		.loc 1 81 239
 1368 0be4 36EE276A 		vadd.f32	s12, s12, s15
 1369              		.loc 1 81 262
 1370 0be8 D7ED2C7A 		vldr.32	s15, [r7, #176]
 1371 0bec 76EE677A 		vsub.f32	s15, s12, s15
ARM GAS  /tmp/ccGyVhXX.s 			page 26


 1372              		.loc 1 81 215
 1373 0bf0 66EEA77A 		vmul.f32	s15, s13, s15
 1374              		.loc 1 81 177
 1375 0bf4 37EE277A 		vadd.f32	s14, s14, s15
 1376              		.loc 1 81 281
 1377 0bf8 D94B     		ldr	r3, .L13+8
 1378 0bfa D3ED016A 		vldr.32	s13, [r3, #4]
 1379              		.loc 1 81 275
 1380 0bfe D7ED087A 		vldr.32	s15, [r7, #32]
 1381 0c02 66EEA76A 		vmul.f32	s13, s13, s15
 1382              		.loc 1 81 301
 1383 0c06 97ED146A 		vldr.32	s12, [r7, #80]
 1384 0c0a D7ED0F7A 		vldr.32	s15, [r7, #60]
 1385 0c0e 36EE276A 		vadd.f32	s12, s12, s15
 1386              		.loc 1 81 293
 1387 0c12 D7ED087A 		vldr.32	s15, [r7, #32]
 1388 0c16 26EE276A 		vmul.f32	s12, s12, s15
 1389              		.loc 1 81 324
 1390 0c1a F6EE005A 		vmov.f32	s11, #5.0e-1
 1391 0c1e D7ED127A 		vldr.32	s15, [r7, #72]
 1392 0c22 75EEE75A 		vsub.f32	s11, s11, s15
 1393              		.loc 1 81 331
 1394 0c26 D7ED0E7A 		vldr.32	s15, [r7, #56]
 1395 0c2a 75EEE75A 		vsub.f32	s11, s11, s15
 1396              		.loc 1 81 316
 1397 0c2e D7ED077A 		vldr.32	s15, [r7, #28]
 1398 0c32 65EEA77A 		vmul.f32	s15, s11, s15
 1399              		.loc 1 81 309
 1400 0c36 36EE276A 		vadd.f32	s12, s12, s15
 1401              		.loc 1 81 339
 1402 0c3a D7ED2B7A 		vldr.32	s15, [r7, #172]
 1403 0c3e 76EE677A 		vsub.f32	s15, s12, s15
 1404              		.loc 1 81 285
 1405 0c42 66EEA77A 		vmul.f32	s15, s13, s15
 1406              		.loc 1 81 268
 1407 0c46 77EE277A 		vadd.f32	s15, s14, s15
 1408              		.loc 1 81 6
 1409 0c4a C64B     		ldr	r3, .L13+12
 1410 0c4c C3ED007A 		vstr.32	s15, [r3]
  82:./Hardware/Src/IMU.c **** if(e0!=0||e1!=0||e2!=0||e3!=0)
 1411              		.loc 1 82 6
 1412 0c50 C54B     		ldr	r3, .L13+16
 1413 0c52 D3ED007A 		vldr.32	s15, [r3]
 1414              		.loc 1 82 3
 1415 0c56 F5EE407A 		vcmp.f32	s15, #0
 1416 0c5a F1EE10FA 		vmrs	APSR_nzcv, FPSCR
 1417 0c5e 17D1     		bne	.L2
 1418              		.loc 1 82 13 discriminator 1
 1419 0c60 C24B     		ldr	r3, .L13+20
 1420 0c62 D3ED007A 		vldr.32	s15, [r3]
 1421              		.loc 1 82 9 discriminator 1
 1422 0c66 F5EE407A 		vcmp.f32	s15, #0
 1423 0c6a F1EE10FA 		vmrs	APSR_nzcv, FPSCR
 1424 0c6e 0FD1     		bne	.L2
 1425              		.loc 1 82 20 discriminator 2
 1426 0c70 BF4B     		ldr	r3, .L13+24
 1427 0c72 D3ED007A 		vldr.32	s15, [r3]
ARM GAS  /tmp/ccGyVhXX.s 			page 27


 1428              		.loc 1 82 16 discriminator 2
 1429 0c76 F5EE407A 		vcmp.f32	s15, #0
 1430 0c7a F1EE10FA 		vmrs	APSR_nzcv, FPSCR
 1431 0c7e 07D1     		bne	.L2
 1432              		.loc 1 82 27 discriminator 3
 1433 0c80 B84B     		ldr	r3, .L13+12
 1434 0c82 D3ED007A 		vldr.32	s15, [r3]
 1435              		.loc 1 82 23 discriminator 3
 1436 0c86 F5EE407A 		vcmp.f32	s15, #0
 1437 0c8a F1EE10FA 		vmrs	APSR_nzcv, FPSCR
 1438 0c8e 5FD0     		beq	.L3
 1439              	.L2:
 1440              	.LBB2:
  83:./Hardware/Src/IMU.c **** {
  84:./Hardware/Src/IMU.c **** float err_sum = sqrt(e0*e0+e1*e1+e2*e2+e3*e3);
 1441              		.loc 1 84 24
 1442 0c90 B54B     		ldr	r3, .L13+16
 1443 0c92 93ED007A 		vldr.32	s14, [r3]
 1444 0c96 B44B     		ldr	r3, .L13+16
 1445 0c98 D3ED007A 		vldr.32	s15, [r3]
 1446 0c9c 27EE277A 		vmul.f32	s14, s14, s15
 1447              		.loc 1 84 30
 1448 0ca0 B24B     		ldr	r3, .L13+20
 1449 0ca2 D3ED006A 		vldr.32	s13, [r3]
 1450 0ca6 B14B     		ldr	r3, .L13+20
 1451 0ca8 D3ED007A 		vldr.32	s15, [r3]
 1452 0cac 66EEA77A 		vmul.f32	s15, s13, s15
 1453              		.loc 1 84 27
 1454 0cb0 37EE277A 		vadd.f32	s14, s14, s15
 1455              		.loc 1 84 36
 1456 0cb4 AE4B     		ldr	r3, .L13+24
 1457 0cb6 D3ED006A 		vldr.32	s13, [r3]
 1458 0cba AD4B     		ldr	r3, .L13+24
 1459 0cbc D3ED007A 		vldr.32	s15, [r3]
 1460 0cc0 66EEA77A 		vmul.f32	s15, s13, s15
 1461              		.loc 1 84 33
 1462 0cc4 37EE277A 		vadd.f32	s14, s14, s15
 1463              		.loc 1 84 42
 1464 0cc8 A64B     		ldr	r3, .L13+12
 1465 0cca D3ED006A 		vldr.32	s13, [r3]
 1466 0cce A54B     		ldr	r3, .L13+12
 1467 0cd0 D3ED007A 		vldr.32	s15, [r3]
 1468 0cd4 66EEA77A 		vmul.f32	s15, s13, s15
 1469              		.loc 1 84 39
 1470 0cd8 77EE277A 		vadd.f32	s15, s14, s15
 1471              		.loc 1 84 17
 1472 0cdc 17EE900A 		vmov	r0, s15
 1473 0ce0 FFF7FEFF 		bl	__aeabi_f2d
 1474 0ce4 0246     		mov	r2, r0
 1475 0ce6 0B46     		mov	r3, r1
 1476 0ce8 43EC102B 		vmov	d0, r2, r3
 1477 0cec FFF7FEFF 		bl	sqrt
 1478 0cf0 53EC102B 		vmov	r2, r3, d0
 1479              		.loc 1 84 7
 1480 0cf4 1046     		mov	r0, r2
 1481 0cf6 1946     		mov	r1, r3
 1482 0cf8 FFF7FEFF 		bl	__aeabi_d2f
ARM GAS  /tmp/ccGyVhXX.s 			page 28


 1483 0cfc 0346     		mov	r3, r0	@ float
 1484 0cfe 3B61     		str	r3, [r7, #16]	@ float
  85:./Hardware/Src/IMU.c **** e0 = e0/err_sum;
 1485              		.loc 1 85 8
 1486 0d00 994B     		ldr	r3, .L13+16
 1487 0d02 D3ED006A 		vldr.32	s13, [r3]
 1488 0d06 97ED047A 		vldr.32	s14, [r7, #16]
 1489 0d0a C6EE877A 		vdiv.f32	s15, s13, s14
 1490              		.loc 1 85 4
 1491 0d0e 964B     		ldr	r3, .L13+16
 1492 0d10 C3ED007A 		vstr.32	s15, [r3]
  86:./Hardware/Src/IMU.c **** e1 = e1/err_sum;
 1493              		.loc 1 86 8
 1494 0d14 954B     		ldr	r3, .L13+20
 1495 0d16 D3ED006A 		vldr.32	s13, [r3]
 1496 0d1a 97ED047A 		vldr.32	s14, [r7, #16]
 1497 0d1e C6EE877A 		vdiv.f32	s15, s13, s14
 1498              		.loc 1 86 4
 1499 0d22 924B     		ldr	r3, .L13+20
 1500 0d24 C3ED007A 		vstr.32	s15, [r3]
  87:./Hardware/Src/IMU.c **** e2 = e2/err_sum;
 1501              		.loc 1 87 8
 1502 0d28 914B     		ldr	r3, .L13+24
 1503 0d2a D3ED006A 		vldr.32	s13, [r3]
 1504 0d2e 97ED047A 		vldr.32	s14, [r7, #16]
 1505 0d32 C6EE877A 		vdiv.f32	s15, s13, s14
 1506              		.loc 1 87 4
 1507 0d36 8E4B     		ldr	r3, .L13+24
 1508 0d38 C3ED007A 		vstr.32	s15, [r3]
  88:./Hardware/Src/IMU.c **** e3 = e3/err_sum;
 1509              		.loc 1 88 8
 1510 0d3c 894B     		ldr	r3, .L13+12
 1511 0d3e D3ED006A 		vldr.32	s13, [r3]
 1512 0d42 97ED047A 		vldr.32	s14, [r7, #16]
 1513 0d46 C6EE877A 		vdiv.f32	s15, s13, s14
 1514              		.loc 1 88 4
 1515 0d4a 864B     		ldr	r3, .L13+12
 1516 0d4c C3ED007A 		vstr.32	s15, [r3]
 1517              	.L3:
 1518              	.LBE2:
  89:./Hardware/Src/IMU.c **** }
  90:./Hardware/Src/IMU.c **** float Alpha = 0.1;
 1519              		.loc 1 90 7
 1520 0d50 884B     		ldr	r3, .L13+28
 1521 0d52 FB60     		str	r3, [r7, #12]	@ float
  91:./Hardware/Src/IMU.c **** //四元数更新
  92:./Hardware/Src/IMU.c ****   QNum.q0 = QNum.q0 - 0.006*(Wx*QNum.q1+Wy*QNum.q2+Wz*QNum.q3)- Alpha*e0;
 1522              		.loc 1 92 17
 1523 0d54 824B     		ldr	r3, .L13+8
 1524 0d56 1B68     		ldr	r3, [r3]	@ float
 1525 0d58 1846     		mov	r0, r3	@ float
 1526 0d5a FFF7FEFF 		bl	__aeabi_f2d
 1527 0d5e 0446     		mov	r4, r0
 1528 0d60 0D46     		mov	r5, r1
 1529              		.loc 1 92 37
 1530 0d62 7F4B     		ldr	r3, .L13+8
 1531 0d64 93ED017A 		vldr.32	s14, [r3, #4]
ARM GAS  /tmp/ccGyVhXX.s 			page 29


 1532              		.loc 1 92 32
 1533 0d68 D7ED2A7A 		vldr.32	s15, [r7, #168]
 1534 0d6c 27EE277A 		vmul.f32	s14, s14, s15
 1535              		.loc 1 92 48
 1536 0d70 7B4B     		ldr	r3, .L13+8
 1537 0d72 D3ED026A 		vldr.32	s13, [r3, #8]
 1538              		.loc 1 92 43
 1539 0d76 D7ED297A 		vldr.32	s15, [r7, #164]
 1540 0d7a 66EEA77A 		vmul.f32	s15, s13, s15
 1541              		.loc 1 92 40
 1542 0d7e 37EE277A 		vadd.f32	s14, s14, s15
 1543              		.loc 1 92 59
 1544 0d82 774B     		ldr	r3, .L13+8
 1545 0d84 D3ED036A 		vldr.32	s13, [r3, #12]
 1546              		.loc 1 92 54
 1547 0d88 D7ED287A 		vldr.32	s15, [r7, #160]
 1548 0d8c 66EEA77A 		vmul.f32	s15, s13, s15
 1549              		.loc 1 92 51
 1550 0d90 77EE277A 		vadd.f32	s15, s14, s15
 1551 0d94 17EE900A 		vmov	r0, s15
 1552 0d98 FFF7FEFF 		bl	__aeabi_f2d
 1553              		.loc 1 92 28
 1554 0d9c 6EA3     		adr	r3, .L13
 1555 0d9e D3E90023 		ldrd	r2, [r3]
 1556 0da2 FFF7FEFF 		bl	__aeabi_dmul
 1557 0da6 0246     		mov	r2, r0
 1558 0da8 0B46     		mov	r3, r1
 1559              		.loc 1 92 21
 1560 0daa 2046     		mov	r0, r4
 1561 0dac 2946     		mov	r1, r5
 1562 0dae FFF7FEFF 		bl	__aeabi_dsub
 1563 0db2 0246     		mov	r2, r0
 1564 0db4 0B46     		mov	r3, r1
 1565 0db6 1446     		mov	r4, r2
 1566 0db8 1D46     		mov	r5, r3
 1567              		.loc 1 92 70
 1568 0dba 6B4B     		ldr	r3, .L13+16
 1569 0dbc 93ED007A 		vldr.32	s14, [r3]
 1570 0dc0 D7ED037A 		vldr.32	s15, [r7, #12]
 1571 0dc4 67EE277A 		vmul.f32	s15, s14, s15
 1572 0dc8 17EE900A 		vmov	r0, s15
 1573 0dcc FFF7FEFF 		bl	__aeabi_f2d
 1574 0dd0 0246     		mov	r2, r0
 1575 0dd2 0B46     		mov	r3, r1
 1576              		.loc 1 92 63
 1577 0dd4 2046     		mov	r0, r4
 1578 0dd6 2946     		mov	r1, r5
 1579 0dd8 FFF7FEFF 		bl	__aeabi_dsub
 1580 0ddc 0246     		mov	r2, r0
 1581 0dde 0B46     		mov	r3, r1
 1582 0de0 1046     		mov	r0, r2
 1583 0de2 1946     		mov	r1, r3
 1584 0de4 FFF7FEFF 		bl	__aeabi_d2f
 1585 0de8 0346     		mov	r3, r0	@ float
 1586              		.loc 1 92 11
 1587 0dea 5D4A     		ldr	r2, .L13+8
 1588 0dec 1360     		str	r3, [r2]	@ float
ARM GAS  /tmp/ccGyVhXX.s 			page 30


  93:./Hardware/Src/IMU.c ****   QNum.q1 = QNum.q1 + 0.006*(Wx*QNum.q0-Wy*QNum.q3+Wz*QNum.q2)- Alpha*e1;
 1589              		.loc 1 93 17
 1590 0dee 5C4B     		ldr	r3, .L13+8
 1591 0df0 5B68     		ldr	r3, [r3, #4]	@ float
 1592 0df2 1846     		mov	r0, r3	@ float
 1593 0df4 FFF7FEFF 		bl	__aeabi_f2d
 1594 0df8 0446     		mov	r4, r0
 1595 0dfa 0D46     		mov	r5, r1
 1596              		.loc 1 93 37
 1597 0dfc 584B     		ldr	r3, .L13+8
 1598 0dfe 93ED007A 		vldr.32	s14, [r3]
 1599              		.loc 1 93 32
 1600 0e02 D7ED2A7A 		vldr.32	s15, [r7, #168]
 1601 0e06 27EE277A 		vmul.f32	s14, s14, s15
 1602              		.loc 1 93 48
 1603 0e0a 554B     		ldr	r3, .L13+8
 1604 0e0c D3ED036A 		vldr.32	s13, [r3, #12]
 1605              		.loc 1 93 43
 1606 0e10 D7ED297A 		vldr.32	s15, [r7, #164]
 1607 0e14 66EEA77A 		vmul.f32	s15, s13, s15
 1608              		.loc 1 93 40
 1609 0e18 37EE677A 		vsub.f32	s14, s14, s15
 1610              		.loc 1 93 59
 1611 0e1c 504B     		ldr	r3, .L13+8
 1612 0e1e D3ED026A 		vldr.32	s13, [r3, #8]
 1613              		.loc 1 93 54
 1614 0e22 D7ED287A 		vldr.32	s15, [r7, #160]
 1615 0e26 66EEA77A 		vmul.f32	s15, s13, s15
 1616              		.loc 1 93 51
 1617 0e2a 77EE277A 		vadd.f32	s15, s14, s15
 1618 0e2e 17EE900A 		vmov	r0, s15
 1619 0e32 FFF7FEFF 		bl	__aeabi_f2d
 1620              		.loc 1 93 28
 1621 0e36 48A3     		adr	r3, .L13
 1622 0e38 D3E90023 		ldrd	r2, [r3]
 1623 0e3c FFF7FEFF 		bl	__aeabi_dmul
 1624 0e40 0246     		mov	r2, r0
 1625 0e42 0B46     		mov	r3, r1
 1626              		.loc 1 93 21
 1627 0e44 2046     		mov	r0, r4
 1628 0e46 2946     		mov	r1, r5
 1629 0e48 FFF7FEFF 		bl	__aeabi_dadd
 1630 0e4c 0246     		mov	r2, r0
 1631 0e4e 0B46     		mov	r3, r1
 1632 0e50 1446     		mov	r4, r2
 1633 0e52 1D46     		mov	r5, r3
 1634              		.loc 1 93 70
 1635 0e54 454B     		ldr	r3, .L13+20
 1636 0e56 93ED007A 		vldr.32	s14, [r3]
 1637 0e5a D7ED037A 		vldr.32	s15, [r7, #12]
 1638 0e5e 67EE277A 		vmul.f32	s15, s14, s15
 1639 0e62 17EE900A 		vmov	r0, s15
 1640 0e66 FFF7FEFF 		bl	__aeabi_f2d
 1641 0e6a 0246     		mov	r2, r0
 1642 0e6c 0B46     		mov	r3, r1
 1643              		.loc 1 93 63
 1644 0e6e 2046     		mov	r0, r4
ARM GAS  /tmp/ccGyVhXX.s 			page 31


 1645 0e70 2946     		mov	r1, r5
 1646 0e72 FFF7FEFF 		bl	__aeabi_dsub
 1647 0e76 0246     		mov	r2, r0
 1648 0e78 0B46     		mov	r3, r1
 1649 0e7a 1046     		mov	r0, r2
 1650 0e7c 1946     		mov	r1, r3
 1651 0e7e FFF7FEFF 		bl	__aeabi_d2f
 1652 0e82 0346     		mov	r3, r0	@ float
 1653              		.loc 1 93 11
 1654 0e84 364A     		ldr	r2, .L13+8
 1655 0e86 5360     		str	r3, [r2, #4]	@ float
  94:./Hardware/Src/IMU.c ****   QNum.q2 = QNum.q2 + 0.006*(Wx*QNum.q3+Wy*QNum.q0-Wz*QNum.q1)- Alpha*e2;
 1656              		.loc 1 94 17
 1657 0e88 354B     		ldr	r3, .L13+8
 1658 0e8a 9B68     		ldr	r3, [r3, #8]	@ float
 1659 0e8c 1846     		mov	r0, r3	@ float
 1660 0e8e FFF7FEFF 		bl	__aeabi_f2d
 1661 0e92 0446     		mov	r4, r0
 1662 0e94 0D46     		mov	r5, r1
 1663              		.loc 1 94 37
 1664 0e96 324B     		ldr	r3, .L13+8
 1665 0e98 93ED037A 		vldr.32	s14, [r3, #12]
 1666              		.loc 1 94 32
 1667 0e9c D7ED2A7A 		vldr.32	s15, [r7, #168]
 1668 0ea0 27EE277A 		vmul.f32	s14, s14, s15
 1669              		.loc 1 94 48
 1670 0ea4 2E4B     		ldr	r3, .L13+8
 1671 0ea6 D3ED006A 		vldr.32	s13, [r3]
 1672              		.loc 1 94 43
 1673 0eaa D7ED297A 		vldr.32	s15, [r7, #164]
 1674 0eae 66EEA77A 		vmul.f32	s15, s13, s15
 1675              		.loc 1 94 40
 1676 0eb2 37EE277A 		vadd.f32	s14, s14, s15
 1677              		.loc 1 94 59
 1678 0eb6 2A4B     		ldr	r3, .L13+8
 1679 0eb8 D3ED016A 		vldr.32	s13, [r3, #4]
 1680              		.loc 1 94 54
 1681 0ebc D7ED287A 		vldr.32	s15, [r7, #160]
 1682 0ec0 66EEA77A 		vmul.f32	s15, s13, s15
 1683              		.loc 1 94 51
 1684 0ec4 77EE677A 		vsub.f32	s15, s14, s15
 1685 0ec8 17EE900A 		vmov	r0, s15
 1686 0ecc FFF7FEFF 		bl	__aeabi_f2d
 1687              		.loc 1 94 28
 1688 0ed0 21A3     		adr	r3, .L13
 1689 0ed2 D3E90023 		ldrd	r2, [r3]
 1690 0ed6 FFF7FEFF 		bl	__aeabi_dmul
 1691 0eda 0246     		mov	r2, r0
 1692 0edc 0B46     		mov	r3, r1
 1693              		.loc 1 94 21
 1694 0ede 2046     		mov	r0, r4
 1695 0ee0 2946     		mov	r1, r5
 1696 0ee2 FFF7FEFF 		bl	__aeabi_dadd
 1697 0ee6 0246     		mov	r2, r0
 1698 0ee8 0B46     		mov	r3, r1
 1699 0eea 1446     		mov	r4, r2
 1700 0eec 1D46     		mov	r5, r3
ARM GAS  /tmp/ccGyVhXX.s 			page 32


 1701              		.loc 1 94 70
 1702 0eee 204B     		ldr	r3, .L13+24
 1703 0ef0 93ED007A 		vldr.32	s14, [r3]
 1704 0ef4 D7ED037A 		vldr.32	s15, [r7, #12]
 1705 0ef8 67EE277A 		vmul.f32	s15, s14, s15
 1706 0efc 17EE900A 		vmov	r0, s15
 1707 0f00 FFF7FEFF 		bl	__aeabi_f2d
 1708 0f04 0246     		mov	r2, r0
 1709 0f06 0B46     		mov	r3, r1
 1710              		.loc 1 94 63
 1711 0f08 2046     		mov	r0, r4
 1712 0f0a 2946     		mov	r1, r5
 1713 0f0c FFF7FEFF 		bl	__aeabi_dsub
 1714 0f10 0246     		mov	r2, r0
 1715 0f12 0B46     		mov	r3, r1
 1716 0f14 1046     		mov	r0, r2
 1717 0f16 1946     		mov	r1, r3
 1718 0f18 FFF7FEFF 		bl	__aeabi_d2f
 1719 0f1c 0346     		mov	r3, r0	@ float
 1720              		.loc 1 94 11
 1721 0f1e 104A     		ldr	r2, .L13+8
 1722 0f20 9360     		str	r3, [r2, #8]	@ float
  95:./Hardware/Src/IMU.c ****   QNum.q3 = QNum.q3 + 0.006*(Wy*QNum.q1-Wx*QNum.q2+Wz*QNum.q0)- Alpha*e3;
 1723              		.loc 1 95 17
 1724 0f22 0F4B     		ldr	r3, .L13+8
 1725 0f24 DB68     		ldr	r3, [r3, #12]	@ float
 1726 0f26 1846     		mov	r0, r3	@ float
 1727 0f28 FFF7FEFF 		bl	__aeabi_f2d
 1728 0f2c 0446     		mov	r4, r0
 1729 0f2e 0D46     		mov	r5, r1
 1730              		.loc 1 95 37
 1731 0f30 0B4B     		ldr	r3, .L13+8
 1732 0f32 93ED017A 		vldr.32	s14, [r3, #4]
 1733              		.loc 1 95 32
 1734 0f36 D7ED297A 		vldr.32	s15, [r7, #164]
 1735 0f3a 27EE277A 		vmul.f32	s14, s14, s15
 1736              		.loc 1 95 48
 1737 0f3e 084B     		ldr	r3, .L13+8
 1738 0f40 D3ED026A 		vldr.32	s13, [r3, #8]
 1739              		.loc 1 95 43
 1740 0f44 D7ED2A7A 		vldr.32	s15, [r7, #168]
 1741 0f48 66EEA77A 		vmul.f32	s15, s13, s15
 1742              		.loc 1 95 40
 1743 0f4c 37EE677A 		vsub.f32	s14, s14, s15
 1744 0f50 12E0     		b	.L14
 1745              	.L15:
 1746 0f52 00BFAFF3 		.align	3
 1746      0080
 1747              	.L13:
 1748 0f58 FA7E6ABC 		.word	-1133871366
 1749 0f5c 7493783F 		.word	1064866676
 1750 0f60 00000000 		.word	QNum
 1751 0f64 00000000 		.word	e3
 1752 0f68 00000000 		.word	e0
 1753 0f6c 00000000 		.word	e1
 1754 0f70 00000000 		.word	e2
 1755 0f74 CDCCCC3D 		.word	1036831949
ARM GAS  /tmp/ccGyVhXX.s 			page 33


 1756              	.L14:
 1757              		.loc 1 95 59
 1758 0f78 DB4B     		ldr	r3, .L16+16
 1759 0f7a D3ED006A 		vldr.32	s13, [r3]
 1760              		.loc 1 95 54
 1761 0f7e D7ED287A 		vldr.32	s15, [r7, #160]
 1762 0f82 66EEA77A 		vmul.f32	s15, s13, s15
 1763              		.loc 1 95 51
 1764 0f86 77EE277A 		vadd.f32	s15, s14, s15
 1765 0f8a 17EE900A 		vmov	r0, s15
 1766 0f8e FFF7FEFF 		bl	__aeabi_f2d
 1767              		.loc 1 95 28
 1768 0f92 D1A3     		adr	r3, .L16
 1769 0f94 D3E90023 		ldrd	r2, [r3]
 1770 0f98 FFF7FEFF 		bl	__aeabi_dmul
 1771 0f9c 0246     		mov	r2, r0
 1772 0f9e 0B46     		mov	r3, r1
 1773              		.loc 1 95 21
 1774 0fa0 2046     		mov	r0, r4
 1775 0fa2 2946     		mov	r1, r5
 1776 0fa4 FFF7FEFF 		bl	__aeabi_dadd
 1777 0fa8 0246     		mov	r2, r0
 1778 0faa 0B46     		mov	r3, r1
 1779 0fac 1446     		mov	r4, r2
 1780 0fae 1D46     		mov	r5, r3
 1781              		.loc 1 95 70
 1782 0fb0 CE4B     		ldr	r3, .L16+20
 1783 0fb2 93ED007A 		vldr.32	s14, [r3]
 1784 0fb6 D7ED037A 		vldr.32	s15, [r7, #12]
 1785 0fba 67EE277A 		vmul.f32	s15, s14, s15
 1786 0fbe 17EE900A 		vmov	r0, s15
 1787 0fc2 FFF7FEFF 		bl	__aeabi_f2d
 1788 0fc6 0246     		mov	r2, r0
 1789 0fc8 0B46     		mov	r3, r1
 1790              		.loc 1 95 63
 1791 0fca 2046     		mov	r0, r4
 1792 0fcc 2946     		mov	r1, r5
 1793 0fce FFF7FEFF 		bl	__aeabi_dsub
 1794 0fd2 0246     		mov	r2, r0
 1795 0fd4 0B46     		mov	r3, r1
 1796 0fd6 1046     		mov	r0, r2
 1797 0fd8 1946     		mov	r1, r3
 1798 0fda FFF7FEFF 		bl	__aeabi_d2f
 1799 0fde 0346     		mov	r3, r0	@ float
 1800              		.loc 1 95 11
 1801 0fe0 C14A     		ldr	r2, .L16+16
 1802 0fe2 D360     		str	r3, [r2, #12]	@ float
  96:./Hardware/Src/IMU.c **** //四元数归一化
  97:./Hardware/Src/IMU.c ****   float sum = sqrt(pow(QNum.q0,2)+pow(QNum.q1,2)+pow(QNum.q2,2)+pow(QNum.q3,2));
 1803              		.loc 1 97 28
 1804 0fe4 C04B     		ldr	r3, .L16+16
 1805 0fe6 1B68     		ldr	r3, [r3]	@ float
 1806              		.loc 1 97 20
 1807 0fe8 1846     		mov	r0, r3	@ float
 1808 0fea FFF7FEFF 		bl	__aeabi_f2d
 1809 0fee 0246     		mov	r2, r0
 1810 0ff0 0B46     		mov	r3, r1
ARM GAS  /tmp/ccGyVhXX.s 			page 34


 1811 0ff2 9FEDBB1B 		vldr.64	d1, .L16+8
 1812 0ff6 43EC102B 		vmov	d0, r2, r3
 1813 0ffa FFF7FEFF 		bl	pow
 1814 0ffe 55EC104B 		vmov	r4, r5, d0
 1815              		.loc 1 97 43
 1816 1002 B94B     		ldr	r3, .L16+16
 1817 1004 5B68     		ldr	r3, [r3, #4]	@ float
 1818              		.loc 1 97 35
 1819 1006 1846     		mov	r0, r3	@ float
 1820 1008 FFF7FEFF 		bl	__aeabi_f2d
 1821 100c 0246     		mov	r2, r0
 1822 100e 0B46     		mov	r3, r1
 1823 1010 9FEDB31B 		vldr.64	d1, .L16+8
 1824 1014 43EC102B 		vmov	d0, r2, r3
 1825 1018 FFF7FEFF 		bl	pow
 1826 101c 53EC102B 		vmov	r2, r3, d0
 1827              		.loc 1 97 34
 1828 1020 2046     		mov	r0, r4
 1829 1022 2946     		mov	r1, r5
 1830 1024 FFF7FEFF 		bl	__aeabi_dadd
 1831 1028 0246     		mov	r2, r0
 1832 102a 0B46     		mov	r3, r1
 1833 102c 1446     		mov	r4, r2
 1834 102e 1D46     		mov	r5, r3
 1835              		.loc 1 97 58
 1836 1030 AD4B     		ldr	r3, .L16+16
 1837 1032 9B68     		ldr	r3, [r3, #8]	@ float
 1838              		.loc 1 97 50
 1839 1034 1846     		mov	r0, r3	@ float
 1840 1036 FFF7FEFF 		bl	__aeabi_f2d
 1841 103a 0246     		mov	r2, r0
 1842 103c 0B46     		mov	r3, r1
 1843 103e 9FEDA81B 		vldr.64	d1, .L16+8
 1844 1042 43EC102B 		vmov	d0, r2, r3
 1845 1046 FFF7FEFF 		bl	pow
 1846 104a 53EC102B 		vmov	r2, r3, d0
 1847              		.loc 1 97 49
 1848 104e 2046     		mov	r0, r4
 1849 1050 2946     		mov	r1, r5
 1850 1052 FFF7FEFF 		bl	__aeabi_dadd
 1851 1056 0246     		mov	r2, r0
 1852 1058 0B46     		mov	r3, r1
 1853 105a 1446     		mov	r4, r2
 1854 105c 1D46     		mov	r5, r3
 1855              		.loc 1 97 73
 1856 105e A24B     		ldr	r3, .L16+16
 1857 1060 DB68     		ldr	r3, [r3, #12]	@ float
 1858              		.loc 1 97 65
 1859 1062 1846     		mov	r0, r3	@ float
 1860 1064 FFF7FEFF 		bl	__aeabi_f2d
 1861 1068 0246     		mov	r2, r0
 1862 106a 0B46     		mov	r3, r1
 1863 106c 9FED9C1B 		vldr.64	d1, .L16+8
 1864 1070 43EC102B 		vmov	d0, r2, r3
 1865 1074 FFF7FEFF 		bl	pow
 1866 1078 53EC102B 		vmov	r2, r3, d0
 1867              		.loc 1 97 15
ARM GAS  /tmp/ccGyVhXX.s 			page 35


 1868 107c 2046     		mov	r0, r4
 1869 107e 2946     		mov	r1, r5
 1870 1080 FFF7FEFF 		bl	__aeabi_dadd
 1871 1084 0246     		mov	r2, r0
 1872 1086 0B46     		mov	r3, r1
 1873 1088 43EC172B 		vmov	d7, r2, r3
 1874 108c B0EE470A 		vmov.f32	s0, s14
 1875 1090 F0EE670A 		vmov.f32	s1, s15
 1876 1094 FFF7FEFF 		bl	sqrt
 1877 1098 53EC102B 		vmov	r2, r3, d0
 1878              		.loc 1 97 9
 1879 109c 1046     		mov	r0, r2
 1880 109e 1946     		mov	r1, r3
 1881 10a0 FFF7FEFF 		bl	__aeabi_d2f
 1882 10a4 0346     		mov	r3, r0	@ float
 1883 10a6 BB60     		str	r3, [r7, #8]	@ float
  98:./Hardware/Src/IMU.c ****   QNum.q0 = QNum.q0/sum;
 1884              		.loc 1 98 17
 1885 10a8 8F4B     		ldr	r3, .L16+16
 1886 10aa D3ED006A 		vldr.32	s13, [r3]
 1887              		.loc 1 98 20
 1888 10ae 97ED027A 		vldr.32	s14, [r7, #8]
 1889 10b2 C6EE877A 		vdiv.f32	s15, s13, s14
 1890              		.loc 1 98 11
 1891 10b6 8C4B     		ldr	r3, .L16+16
 1892 10b8 C3ED007A 		vstr.32	s15, [r3]
  99:./Hardware/Src/IMU.c ****   QNum.q1 = QNum.q1/sum;
 1893              		.loc 1 99 17
 1894 10bc 8A4B     		ldr	r3, .L16+16
 1895 10be D3ED016A 		vldr.32	s13, [r3, #4]
 1896              		.loc 1 99 20
 1897 10c2 97ED027A 		vldr.32	s14, [r7, #8]
 1898 10c6 C6EE877A 		vdiv.f32	s15, s13, s14
 1899              		.loc 1 99 11
 1900 10ca 874B     		ldr	r3, .L16+16
 1901 10cc C3ED017A 		vstr.32	s15, [r3, #4]
 100:./Hardware/Src/IMU.c ****   QNum.q2 = QNum.q2/sum;
 1902              		.loc 1 100 17
 1903 10d0 854B     		ldr	r3, .L16+16
 1904 10d2 D3ED026A 		vldr.32	s13, [r3, #8]
 1905              		.loc 1 100 20
 1906 10d6 97ED027A 		vldr.32	s14, [r7, #8]
 1907 10da C6EE877A 		vdiv.f32	s15, s13, s14
 1908              		.loc 1 100 11
 1909 10de 824B     		ldr	r3, .L16+16
 1910 10e0 C3ED027A 		vstr.32	s15, [r3, #8]
 101:./Hardware/Src/IMU.c ****   QNum.q3 = QNum.q3/sum;
 1911              		.loc 1 101 17
 1912 10e4 804B     		ldr	r3, .L16+16
 1913 10e6 D3ED036A 		vldr.32	s13, [r3, #12]
 1914              		.loc 1 101 20
 1915 10ea 97ED027A 		vldr.32	s14, [r7, #8]
 1916 10ee C6EE877A 		vdiv.f32	s15, s13, s14
 1917              		.loc 1 101 11
 1918 10f2 7D4B     		ldr	r3, .L16+16
 1919 10f4 C3ED037A 		vstr.32	s15, [r3, #12]
 102:./Hardware/Src/IMU.c **** 
ARM GAS  /tmp/ccGyVhXX.s 			page 36


 103:./Hardware/Src/IMU.c **** //四元数转欧拉角 Yaw->Pitch->Roll
 104:./Hardware/Src/IMU.c ****   angle->pitch =  asin(-2*(QNum.q2*QNum.q3-QNum.q0*QNum.q1));
 1920              		.loc 1 104 32
 1921 10f8 7B4B     		ldr	r3, .L16+16
 1922 10fa 93ED027A 		vldr.32	s14, [r3, #8]
 1923              		.loc 1 104 40
 1924 10fe 7A4B     		ldr	r3, .L16+16
 1925 1100 D3ED037A 		vldr.32	s15, [r3, #12]
 1926              		.loc 1 104 35
 1927 1104 27EE277A 		vmul.f32	s14, s14, s15
 1928              		.loc 1 104 48
 1929 1108 774B     		ldr	r3, .L16+16
 1930 110a D3ED006A 		vldr.32	s13, [r3]
 1931              		.loc 1 104 56
 1932 110e 764B     		ldr	r3, .L16+16
 1933 1110 D3ED017A 		vldr.32	s15, [r3, #4]
 1934              		.loc 1 104 51
 1935 1114 66EEA77A 		vmul.f32	s15, s13, s15
 1936              		.loc 1 104 43
 1937 1118 77EE677A 		vsub.f32	s15, s14, s15
 1938              		.loc 1 104 26
 1939 111c B8EE007A 		vmov.f32	s14, #-2.0e+0
 1940 1120 67EE877A 		vmul.f32	s15, s15, s14
 1941              		.loc 1 104 19
 1942 1124 17EE900A 		vmov	r0, s15
 1943 1128 FFF7FEFF 		bl	__aeabi_f2d
 1944 112c 0246     		mov	r2, r0
 1945 112e 0B46     		mov	r3, r1
 1946 1130 43EC102B 		vmov	d0, r2, r3
 1947 1134 FFF7FEFF 		bl	asin
 1948 1138 53EC102B 		vmov	r2, r3, d0
 1949 113c 1046     		mov	r0, r2
 1950 113e 1946     		mov	r1, r3
 1951 1140 FFF7FEFF 		bl	__aeabi_d2f
 1952 1144 0246     		mov	r2, r0	@ float
 1953              		.loc 1 104 16
 1954 1146 7B68     		ldr	r3, [r7, #4]
 1955 1148 1A60     		str	r2, [r3]	@ float
 105:./Hardware/Src/IMU.c ****   angle->yaw = atan((2*(QNum.q1*QNum.q2+QNum.q0*QNum.q3))/(pow(QNum.q0,2)-pow(QNum.q1,2)+pow(QNum.q
 1956              		.loc 1 105 29
 1957 114a 674B     		ldr	r3, .L16+16
 1958 114c 93ED017A 		vldr.32	s14, [r3, #4]
 1959              		.loc 1 105 37
 1960 1150 654B     		ldr	r3, .L16+16
 1961 1152 D3ED027A 		vldr.32	s15, [r3, #8]
 1962              		.loc 1 105 32
 1963 1156 27EE277A 		vmul.f32	s14, s14, s15
 1964              		.loc 1 105 45
 1965 115a 634B     		ldr	r3, .L16+16
 1966 115c D3ED006A 		vldr.32	s13, [r3]
 1967              		.loc 1 105 53
 1968 1160 614B     		ldr	r3, .L16+16
 1969 1162 D3ED037A 		vldr.32	s15, [r3, #12]
 1970              		.loc 1 105 48
 1971 1166 66EEA77A 		vmul.f32	s15, s13, s15
 1972              		.loc 1 105 40
 1973 116a 77EE277A 		vadd.f32	s15, s14, s15
ARM GAS  /tmp/ccGyVhXX.s 			page 37


 1974              		.loc 1 105 23
 1975 116e 77EEA77A 		vadd.f32	s15, s15, s15
 1976 1172 17EE900A 		vmov	r0, s15
 1977 1176 FFF7FEFF 		bl	__aeabi_f2d
 1978 117a 0446     		mov	r4, r0
 1979 117c 0D46     		mov	r5, r1
 1980              		.loc 1 105 68
 1981 117e 5A4B     		ldr	r3, .L16+16
 1982 1180 1B68     		ldr	r3, [r3]	@ float
 1983              		.loc 1 105 60
 1984 1182 1846     		mov	r0, r3	@ float
 1985 1184 FFF7FEFF 		bl	__aeabi_f2d
 1986 1188 0246     		mov	r2, r0
 1987 118a 0B46     		mov	r3, r1
 1988 118c 9FED541B 		vldr.64	d1, .L16+8
 1989 1190 43EC102B 		vmov	d0, r2, r3
 1990 1194 FFF7FEFF 		bl	pow
 1991 1198 59EC108B 		vmov	r8, r9, d0
 1992              		.loc 1 105 83
 1993 119c 524B     		ldr	r3, .L16+16
 1994 119e 5B68     		ldr	r3, [r3, #4]	@ float
 1995              		.loc 1 105 75
 1996 11a0 1846     		mov	r0, r3	@ float
 1997 11a2 FFF7FEFF 		bl	__aeabi_f2d
 1998 11a6 0246     		mov	r2, r0
 1999 11a8 0B46     		mov	r3, r1
 2000 11aa 9FED4D1B 		vldr.64	d1, .L16+8
 2001 11ae 43EC102B 		vmov	d0, r2, r3
 2002 11b2 FFF7FEFF 		bl	pow
 2003 11b6 53EC102B 		vmov	r2, r3, d0
 2004              		.loc 1 105 74
 2005 11ba 4046     		mov	r0, r8
 2006 11bc 4946     		mov	r1, r9
 2007 11be FFF7FEFF 		bl	__aeabi_dsub
 2008 11c2 0246     		mov	r2, r0
 2009 11c4 0B46     		mov	r3, r1
 2010 11c6 9046     		mov	r8, r2
 2011 11c8 9946     		mov	r9, r3
 2012              		.loc 1 105 98
 2013 11ca 474B     		ldr	r3, .L16+16
 2014 11cc 9B68     		ldr	r3, [r3, #8]	@ float
 2015              		.loc 1 105 90
 2016 11ce 1846     		mov	r0, r3	@ float
 2017 11d0 FFF7FEFF 		bl	__aeabi_f2d
 2018 11d4 0246     		mov	r2, r0
 2019 11d6 0B46     		mov	r3, r1
 2020 11d8 9FED411B 		vldr.64	d1, .L16+8
 2021 11dc 43EC102B 		vmov	d0, r2, r3
 2022 11e0 FFF7FEFF 		bl	pow
 2023 11e4 53EC102B 		vmov	r2, r3, d0
 2024              		.loc 1 105 89
 2025 11e8 4046     		mov	r0, r8
 2026 11ea 4946     		mov	r1, r9
 2027 11ec FFF7FEFF 		bl	__aeabi_dadd
 2028 11f0 0246     		mov	r2, r0
 2029 11f2 0B46     		mov	r3, r1
 2030 11f4 9046     		mov	r8, r2
ARM GAS  /tmp/ccGyVhXX.s 			page 38


 2031 11f6 9946     		mov	r9, r3
 2032              		.loc 1 105 113
 2033 11f8 3B4B     		ldr	r3, .L16+16
 2034 11fa DB68     		ldr	r3, [r3, #12]	@ float
 2035              		.loc 1 105 105
 2036 11fc 1846     		mov	r0, r3	@ float
 2037 11fe FFF7FEFF 		bl	__aeabi_f2d
 2038 1202 0246     		mov	r2, r0
 2039 1204 0B46     		mov	r3, r1
 2040 1206 9FED361B 		vldr.64	d1, .L16+8
 2041 120a 43EC102B 		vmov	d0, r2, r3
 2042 120e FFF7FEFF 		bl	pow
 2043 1212 53EC102B 		vmov	r2, r3, d0
 2044              		.loc 1 105 104
 2045 1216 4046     		mov	r0, r8
 2046 1218 4946     		mov	r1, r9
 2047 121a FFF7FEFF 		bl	__aeabi_dsub
 2048 121e 0246     		mov	r2, r0
 2049 1220 0B46     		mov	r3, r1
 2050              		.loc 1 105 16
 2051 1222 2046     		mov	r0, r4
 2052 1224 2946     		mov	r1, r5
 2053 1226 FFF7FEFF 		bl	__aeabi_ddiv
 2054 122a 0246     		mov	r2, r0
 2055 122c 0B46     		mov	r3, r1
 2056 122e 43EC172B 		vmov	d7, r2, r3
 2057 1232 B0EE470A 		vmov.f32	s0, s14
 2058 1236 F0EE670A 		vmov.f32	s1, s15
 2059 123a FFF7FEFF 		bl	atan
 2060 123e 53EC102B 		vmov	r2, r3, d0
 2061 1242 1046     		mov	r0, r2
 2062 1244 1946     		mov	r1, r3
 2063 1246 FFF7FEFF 		bl	__aeabi_d2f
 2064 124a 0246     		mov	r2, r0	@ float
 2065              		.loc 1 105 14
 2066 124c 7B68     		ldr	r3, [r7, #4]
 2067 124e 9A60     		str	r2, [r3, #8]	@ float
 106:./Hardware/Src/IMU.c ****   angle->roll = atan((2*(QNum.q1*QNum.q3+QNum.q0*QNum.q2))/(pow(QNum.q0,2)-pow(QNum.q1,2)-pow(QNum.
 2068              		.loc 1 106 30
 2069 1250 254B     		ldr	r3, .L16+16
 2070 1252 93ED017A 		vldr.32	s14, [r3, #4]
 2071              		.loc 1 106 38
 2072 1256 244B     		ldr	r3, .L16+16
 2073 1258 D3ED037A 		vldr.32	s15, [r3, #12]
 2074              		.loc 1 106 33
 2075 125c 27EE277A 		vmul.f32	s14, s14, s15
 2076              		.loc 1 106 46
 2077 1260 214B     		ldr	r3, .L16+16
 2078 1262 D3ED006A 		vldr.32	s13, [r3]
 2079              		.loc 1 106 54
 2080 1266 204B     		ldr	r3, .L16+16
 2081 1268 D3ED027A 		vldr.32	s15, [r3, #8]
 2082              		.loc 1 106 49
 2083 126c 66EEA77A 		vmul.f32	s15, s13, s15
 2084              		.loc 1 106 41
 2085 1270 77EE277A 		vadd.f32	s15, s14, s15
 2086              		.loc 1 106 24
ARM GAS  /tmp/ccGyVhXX.s 			page 39


 2087 1274 77EEA77A 		vadd.f32	s15, s15, s15
 2088 1278 17EE900A 		vmov	r0, s15
 2089 127c FFF7FEFF 		bl	__aeabi_f2d
 2090 1280 0446     		mov	r4, r0
 2091 1282 0D46     		mov	r5, r1
 2092              		.loc 1 106 69
 2093 1284 184B     		ldr	r3, .L16+16
 2094 1286 1B68     		ldr	r3, [r3]	@ float
 2095              		.loc 1 106 61
 2096 1288 1846     		mov	r0, r3	@ float
 2097 128a FFF7FEFF 		bl	__aeabi_f2d
 2098 128e 0246     		mov	r2, r0
 2099 1290 0B46     		mov	r3, r1
 2100 1292 9FED131B 		vldr.64	d1, .L16+8
 2101 1296 43EC102B 		vmov	d0, r2, r3
 2102 129a FFF7FEFF 		bl	pow
 2103 129e 59EC108B 		vmov	r8, r9, d0
 2104              		.loc 1 106 84
 2105 12a2 114B     		ldr	r3, .L16+16
 2106 12a4 5B68     		ldr	r3, [r3, #4]	@ float
 2107              		.loc 1 106 76
 2108 12a6 1846     		mov	r0, r3	@ float
 2109 12a8 FFF7FEFF 		bl	__aeabi_f2d
 2110 12ac 0246     		mov	r2, r0
 2111 12ae 0B46     		mov	r3, r1
 2112 12b0 9FED0B1B 		vldr.64	d1, .L16+8
 2113 12b4 43EC102B 		vmov	d0, r2, r3
 2114 12b8 FFF7FEFF 		bl	pow
 2115 12bc 53EC102B 		vmov	r2, r3, d0
 2116              		.loc 1 106 75
 2117 12c0 4046     		mov	r0, r8
 2118 12c2 4946     		mov	r1, r9
 2119 12c4 FFF7FEFF 		bl	__aeabi_dsub
 2120 12c8 0246     		mov	r2, r0
 2121 12ca 0B46     		mov	r3, r1
 2122 12cc 9046     		mov	r8, r2
 2123 12ce 9946     		mov	r9, r3
 2124              		.loc 1 106 99
 2125 12d0 054B     		ldr	r3, .L16+16
 2126 12d2 9B68     		ldr	r3, [r3, #8]	@ float
 2127              		.loc 1 106 91
 2128 12d4 1846     		mov	r0, r3	@ float
 2129 12d6 0BE0     		b	.L17
 2130              	.L18:
 2131              		.align	3
 2132              	.L16:
 2133 12d8 FA7E6ABC 		.word	-1133871366
 2134 12dc 7493783F 		.word	1064866676
 2135 12e0 00000000 		.word	0
 2136 12e4 00000040 		.word	1073741824
 2137 12e8 00000000 		.word	QNum
 2138 12ec 00000000 		.word	e3
 2139              	.L17:
 2140 12f0 FFF7FEFF 		bl	__aeabi_f2d
 2141 12f4 0246     		mov	r2, r0
 2142 12f6 0B46     		mov	r3, r1
 2143 12f8 9FED211B 		vldr.64	d1, .L19
ARM GAS  /tmp/ccGyVhXX.s 			page 40


 2144 12fc 43EC102B 		vmov	d0, r2, r3
 2145 1300 FFF7FEFF 		bl	pow
 2146 1304 53EC102B 		vmov	r2, r3, d0
 2147              		.loc 1 106 90
 2148 1308 4046     		mov	r0, r8
 2149 130a 4946     		mov	r1, r9
 2150 130c FFF7FEFF 		bl	__aeabi_dsub
 2151 1310 0246     		mov	r2, r0
 2152 1312 0B46     		mov	r3, r1
 2153 1314 9046     		mov	r8, r2
 2154 1316 9946     		mov	r9, r3
 2155              		.loc 1 106 114
 2156 1318 1B4B     		ldr	r3, .L19+8
 2157 131a DB68     		ldr	r3, [r3, #12]	@ float
 2158              		.loc 1 106 106
 2159 131c 1846     		mov	r0, r3	@ float
 2160 131e FFF7FEFF 		bl	__aeabi_f2d
 2161 1322 0246     		mov	r2, r0
 2162 1324 0B46     		mov	r3, r1
 2163 1326 9FED161B 		vldr.64	d1, .L19
 2164 132a 43EC102B 		vmov	d0, r2, r3
 2165 132e FFF7FEFF 		bl	pow
 2166 1332 53EC102B 		vmov	r2, r3, d0
 2167              		.loc 1 106 105
 2168 1336 4046     		mov	r0, r8
 2169 1338 4946     		mov	r1, r9
 2170 133a FFF7FEFF 		bl	__aeabi_dadd
 2171 133e 0246     		mov	r2, r0
 2172 1340 0B46     		mov	r3, r1
 2173              		.loc 1 106 17
 2174 1342 2046     		mov	r0, r4
 2175 1344 2946     		mov	r1, r5
 2176 1346 FFF7FEFF 		bl	__aeabi_ddiv
 2177 134a 0246     		mov	r2, r0
 2178 134c 0B46     		mov	r3, r1
 2179 134e 43EC172B 		vmov	d7, r2, r3
 2180 1352 B0EE470A 		vmov.f32	s0, s14
 2181 1356 F0EE670A 		vmov.f32	s1, s15
 2182 135a FFF7FEFF 		bl	atan
 2183 135e 53EC102B 		vmov	r2, r3, d0
 2184 1362 1046     		mov	r0, r2
 2185 1364 1946     		mov	r1, r3
 2186 1366 FFF7FEFF 		bl	__aeabi_d2f
 2187 136a 0246     		mov	r2, r0	@ float
 2188              		.loc 1 106 15
 2189 136c 7B68     		ldr	r3, [r7, #4]
 2190 136e 5A60     		str	r2, [r3, #4]	@ float
 107:./Hardware/Src/IMU.c **** }
 2191              		.loc 1 107 1
 2192 1370 00BF     		nop
 2193 1372 B837     		adds	r7, r7, #184
 2194              		.cfi_def_cfa_offset 24
 2195 1374 BD46     		mov	sp, r7
 2196              		.cfi_def_cfa_register 13
 2197              		@ sp needed
 2198 1376 BDE8B083 		pop	{r4, r5, r7, r8, r9, pc}
 2199              	.L20:
ARM GAS  /tmp/ccGyVhXX.s 			page 41


 2200 137a 00BFAFF3 		.align	3
 2200      0080
 2201              	.L19:
 2202 1380 00000000 		.word	0
 2203 1384 00000040 		.word	1073741824
 2204 1388 00000000 		.word	QNum
 2205              		.cfi_endproc
 2206              	.LFE123:
 2208              		.global	Xoffset
 2209              		.section	.bss.Xoffset,"aw",%nobits
 2210              		.align	2
 2213              	Xoffset:
 2214 0000 00000000 		.space	4
 2215              		.global	Yoffset
 2216              		.section	.bss.Yoffset,"aw",%nobits
 2217              		.align	2
 2220              	Yoffset:
 2221 0000 00000000 		.space	4
 2222              		.global	Zoffset
 2223              		.section	.bss.Zoffset,"aw",%nobits
 2224              		.align	2
 2227              	Zoffset:
 2228 0000 00000000 		.space	4
 2229              		.global	Kmx
 2230              		.section	.bss.Kmx,"aw",%nobits
 2231              		.align	2
 2234              	Kmx:
 2235 0000 00000000 		.space	4
 2236              		.global	Kmy
 2237              		.section	.bss.Kmy,"aw",%nobits
 2238              		.align	2
 2241              	Kmy:
 2242 0000 00000000 		.space	4
 2243              		.global	Kmz
 2244              		.section	.bss.Kmz,"aw",%nobits
 2245              		.align	2
 2248              	Kmz:
 2249 0000 00000000 		.space	4
 2250              		.section	.text.HMC5883L_Motify,"ax",%progbits
 2251              		.align	1
 2252              		.global	HMC5883L_Motify
 2253              		.syntax unified
 2254              		.thumb
 2255              		.thumb_func
 2257              	HMC5883L_Motify:
 2258              	.LFB124:
 108:./Hardware/Src/IMU.c **** 
 109:./Hardware/Src/IMU.c **** float Xoffset,Yoffset,Zoffset,Kmx,Kmy,Kmz;
 110:./Hardware/Src/IMU.c **** void HMC5883L_Motify(void){
 2259              		.loc 1 110 27
 2260              		.cfi_startproc
 2261              		@ args = 0, pretend = 0, frame = 32
 2262              		@ frame_needed = 1, uses_anonymous_args = 0
 2263 0000 80B5     		push	{r7, lr}
 2264              		.cfi_def_cfa_offset 8
 2265              		.cfi_offset 7, -8
 2266              		.cfi_offset 14, -4
ARM GAS  /tmp/ccGyVhXX.s 			page 42


 2267 0002 88B0     		sub	sp, sp, #32
 2268              		.cfi_def_cfa_offset 40
 2269 0004 00AF     		add	r7, sp, #0
 2270              		.cfi_def_cfa_register 7
 111:./Hardware/Src/IMU.c ****   HMC588CL_ReadData(HMC5883L_data);
 2271              		.loc 1 111 3
 2272 0006 8448     		ldr	r0, .L42
 2273 0008 FFF7FEFF 		bl	HMC588CL_ReadData
 112:./Hardware/Src/IMU.c ****   float Xmin,Xmax = HMC5883L_data[0];
 2274              		.loc 1 112 34
 2275 000c 824B     		ldr	r3, .L42
 2276 000e B3F90030 		ldrsh	r3, [r3]
 2277              		.loc 1 112 14
 2278 0012 07EE903A 		vmov	s15, r3	@ int
 2279 0016 F8EEE77A 		vcvt.f32.s32	s15, s15
 2280 001a C7ED067A 		vstr.32	s15, [r7, #24]
 113:./Hardware/Src/IMU.c ****   float Ymin,Ymax = HMC5883L_data[1];
 2281              		.loc 1 113 34
 2282 001e 7E4B     		ldr	r3, .L42
 2283 0020 B3F90230 		ldrsh	r3, [r3, #2]
 2284              		.loc 1 113 14
 2285 0024 07EE903A 		vmov	s15, r3	@ int
 2286 0028 F8EEE77A 		vcvt.f32.s32	s15, s15
 2287 002c C7ED047A 		vstr.32	s15, [r7, #16]
 114:./Hardware/Src/IMU.c ****   float Zmin,Zmax = HMC5883L_data[2];
 2288              		.loc 1 114 34
 2289 0030 794B     		ldr	r3, .L42
 2290 0032 B3F90430 		ldrsh	r3, [r3, #4]
 2291              		.loc 1 114 14
 2292 0036 07EE903A 		vmov	s15, r3	@ int
 2293 003a F8EEE77A 		vcvt.f32.s32	s15, s15
 2294 003e C7ED027A 		vstr.32	s15, [r7, #8]
 115:./Hardware/Src/IMU.c ****   int i = 200;
 2295              		.loc 1 115 7
 2296 0042 C823     		movs	r3, #200
 2297 0044 7B60     		str	r3, [r7, #4]
 116:./Hardware/Src/IMU.c ****   while(i--){
 2298              		.loc 1 116 8
 2299 0046 8FE0     		b	.L22
 2300              	.L35:
 117:./Hardware/Src/IMU.c ****     HMC588CL_ReadData(HMC5883L_data);
 2301              		.loc 1 117 5
 2302 0048 7348     		ldr	r0, .L42
 2303 004a FFF7FEFF 		bl	HMC588CL_ReadData
 118:./Hardware/Src/IMU.c ****     if(Xmin>HMC5883L_data[0]) Xmin = HMC5883L_data[0];
 2304              		.loc 1 118 26
 2305 004e 724B     		ldr	r3, .L42
 2306 0050 B3F90030 		ldrsh	r3, [r3]
 2307              		.loc 1 118 12
 2308 0054 07EE903A 		vmov	s15, r3	@ int
 2309 0058 F8EEE77A 		vcvt.f32.s32	s15, s15
 2310              		.loc 1 118 7
 2311 005c 97ED077A 		vldr.32	s14, [r7, #28]
 2312 0060 B4EEE77A 		vcmpe.f32	s14, s15
 2313 0064 F1EE10FA 		vmrs	APSR_nzcv, FPSCR
 2314 0068 08DD     		ble	.L23
 2315              		.loc 1 118 51 discriminator 1
ARM GAS  /tmp/ccGyVhXX.s 			page 43


 2316 006a 6B4B     		ldr	r3, .L42
 2317 006c B3F90030 		ldrsh	r3, [r3]
 2318              		.loc 1 118 36 discriminator 1
 2319 0070 07EE903A 		vmov	s15, r3	@ int
 2320 0074 F8EEE77A 		vcvt.f32.s32	s15, s15
 2321 0078 C7ED077A 		vstr.32	s15, [r7, #28]
 2322              	.L23:
 119:./Hardware/Src/IMU.c ****     if(Xmax<HMC5883L_data[0]) Xmax = HMC5883L_data[0];
 2323              		.loc 1 119 26
 2324 007c 664B     		ldr	r3, .L42
 2325 007e B3F90030 		ldrsh	r3, [r3]
 2326              		.loc 1 119 12
 2327 0082 07EE903A 		vmov	s15, r3	@ int
 2328 0086 F8EEE77A 		vcvt.f32.s32	s15, s15
 2329              		.loc 1 119 7
 2330 008a 97ED067A 		vldr.32	s14, [r7, #24]
 2331 008e B4EEE77A 		vcmpe.f32	s14, s15
 2332 0092 F1EE10FA 		vmrs	APSR_nzcv, FPSCR
 2333 0096 08D5     		bpl	.L25
 2334              		.loc 1 119 51 discriminator 1
 2335 0098 5F4B     		ldr	r3, .L42
 2336 009a B3F90030 		ldrsh	r3, [r3]
 2337              		.loc 1 119 36 discriminator 1
 2338 009e 07EE903A 		vmov	s15, r3	@ int
 2339 00a2 F8EEE77A 		vcvt.f32.s32	s15, s15
 2340 00a6 C7ED067A 		vstr.32	s15, [r7, #24]
 2341              	.L25:
 120:./Hardware/Src/IMU.c ****     if(Ymin>HMC5883L_data[1]) Ymin = HMC5883L_data[1];
 2342              		.loc 1 120 26
 2343 00aa 5B4B     		ldr	r3, .L42
 2344 00ac B3F90230 		ldrsh	r3, [r3, #2]
 2345              		.loc 1 120 12
 2346 00b0 07EE903A 		vmov	s15, r3	@ int
 2347 00b4 F8EEE77A 		vcvt.f32.s32	s15, s15
 2348              		.loc 1 120 7
 2349 00b8 97ED057A 		vldr.32	s14, [r7, #20]
 2350 00bc B4EEE77A 		vcmpe.f32	s14, s15
 2351 00c0 F1EE10FA 		vmrs	APSR_nzcv, FPSCR
 2352 00c4 08DD     		ble	.L27
 2353              		.loc 1 120 51 discriminator 1
 2354 00c6 544B     		ldr	r3, .L42
 2355 00c8 B3F90230 		ldrsh	r3, [r3, #2]
 2356              		.loc 1 120 36 discriminator 1
 2357 00cc 07EE903A 		vmov	s15, r3	@ int
 2358 00d0 F8EEE77A 		vcvt.f32.s32	s15, s15
 2359 00d4 C7ED057A 		vstr.32	s15, [r7, #20]
 2360              	.L27:
 121:./Hardware/Src/IMU.c ****     if(Ymax<HMC5883L_data[1]) Ymax = HMC5883L_data[1];    
 2361              		.loc 1 121 26
 2362 00d8 4F4B     		ldr	r3, .L42
 2363 00da B3F90230 		ldrsh	r3, [r3, #2]
 2364              		.loc 1 121 12
 2365 00de 07EE903A 		vmov	s15, r3	@ int
 2366 00e2 F8EEE77A 		vcvt.f32.s32	s15, s15
 2367              		.loc 1 121 7
 2368 00e6 97ED047A 		vldr.32	s14, [r7, #16]
 2369 00ea B4EEE77A 		vcmpe.f32	s14, s15
ARM GAS  /tmp/ccGyVhXX.s 			page 44


 2370 00ee F1EE10FA 		vmrs	APSR_nzcv, FPSCR
 2371 00f2 08D5     		bpl	.L29
 2372              		.loc 1 121 51 discriminator 1
 2373 00f4 484B     		ldr	r3, .L42
 2374 00f6 B3F90230 		ldrsh	r3, [r3, #2]
 2375              		.loc 1 121 36 discriminator 1
 2376 00fa 07EE903A 		vmov	s15, r3	@ int
 2377 00fe F8EEE77A 		vcvt.f32.s32	s15, s15
 2378 0102 C7ED047A 		vstr.32	s15, [r7, #16]
 2379              	.L29:
 122:./Hardware/Src/IMU.c ****     if(Zmin>HMC5883L_data[2]) Zmin = HMC5883L_data[2];
 2380              		.loc 1 122 26
 2381 0106 444B     		ldr	r3, .L42
 2382 0108 B3F90430 		ldrsh	r3, [r3, #4]
 2383              		.loc 1 122 12
 2384 010c 07EE903A 		vmov	s15, r3	@ int
 2385 0110 F8EEE77A 		vcvt.f32.s32	s15, s15
 2386              		.loc 1 122 7
 2387 0114 97ED037A 		vldr.32	s14, [r7, #12]
 2388 0118 B4EEE77A 		vcmpe.f32	s14, s15
 2389 011c F1EE10FA 		vmrs	APSR_nzcv, FPSCR
 2390 0120 08DD     		ble	.L31
 2391              		.loc 1 122 51 discriminator 1
 2392 0122 3D4B     		ldr	r3, .L42
 2393 0124 B3F90430 		ldrsh	r3, [r3, #4]
 2394              		.loc 1 122 36 discriminator 1
 2395 0128 07EE903A 		vmov	s15, r3	@ int
 2396 012c F8EEE77A 		vcvt.f32.s32	s15, s15
 2397 0130 C7ED037A 		vstr.32	s15, [r7, #12]
 2398              	.L31:
 123:./Hardware/Src/IMU.c ****     if(Zmax<HMC5883L_data[2]) Zmax = HMC5883L_data[2]; 
 2399              		.loc 1 123 26
 2400 0134 384B     		ldr	r3, .L42
 2401 0136 B3F90430 		ldrsh	r3, [r3, #4]
 2402              		.loc 1 123 12
 2403 013a 07EE903A 		vmov	s15, r3	@ int
 2404 013e F8EEE77A 		vcvt.f32.s32	s15, s15
 2405              		.loc 1 123 7
 2406 0142 97ED027A 		vldr.32	s14, [r7, #8]
 2407 0146 B4EEE77A 		vcmpe.f32	s14, s15
 2408 014a F1EE10FA 		vmrs	APSR_nzcv, FPSCR
 2409 014e 08D5     		bpl	.L33
 2410              		.loc 1 123 51 discriminator 1
 2411 0150 314B     		ldr	r3, .L42
 2412 0152 B3F90430 		ldrsh	r3, [r3, #4]
 2413              		.loc 1 123 36 discriminator 1
 2414 0156 07EE903A 		vmov	s15, r3	@ int
 2415 015a F8EEE77A 		vcvt.f32.s32	s15, s15
 2416 015e C7ED027A 		vstr.32	s15, [r7, #8]
 2417              	.L33:
 124:./Hardware/Src/IMU.c ****     Delay_ms(100);    
 2418              		.loc 1 124 5
 2419 0162 6420     		movs	r0, #100
 2420 0164 FFF7FEFF 		bl	Delay_ms
 2421              	.L22:
 116:./Hardware/Src/IMU.c ****     HMC588CL_ReadData(HMC5883L_data);
 2422              		.loc 1 116 10
ARM GAS  /tmp/ccGyVhXX.s 			page 45


 2423 0168 7B68     		ldr	r3, [r7, #4]
 2424 016a 5A1E     		subs	r2, r3, #1
 2425 016c 7A60     		str	r2, [r7, #4]
 116:./Hardware/Src/IMU.c ****     HMC588CL_ReadData(HMC5883L_data);
 2426              		.loc 1 116 9
 2427 016e 002B     		cmp	r3, #0
 2428 0170 7FF46AAF 		bne	.L35
 125:./Hardware/Src/IMU.c ****   }
 126:./Hardware/Src/IMU.c ****   Xoffset = (Xmax+Xmin)/2;
 2429              		.loc 1 126 18
 2430 0174 97ED067A 		vldr.32	s14, [r7, #24]
 2431 0178 D7ED077A 		vldr.32	s15, [r7, #28]
 2432 017c 37EE277A 		vadd.f32	s14, s14, s15
 2433              		.loc 1 126 24
 2434 0180 F0EE006A 		vmov.f32	s13, #2.0e+0
 2435 0184 C7EE267A 		vdiv.f32	s15, s14, s13
 2436              		.loc 1 126 11
 2437 0188 244B     		ldr	r3, .L42+4
 2438 018a C3ED007A 		vstr.32	s15, [r3]
 127:./Hardware/Src/IMU.c ****   Yoffset = (Ymax+Ymin)/2;
 2439              		.loc 1 127 18
 2440 018e 97ED047A 		vldr.32	s14, [r7, #16]
 2441 0192 D7ED057A 		vldr.32	s15, [r7, #20]
 2442 0196 37EE277A 		vadd.f32	s14, s14, s15
 2443              		.loc 1 127 24
 2444 019a F0EE006A 		vmov.f32	s13, #2.0e+0
 2445 019e C7EE267A 		vdiv.f32	s15, s14, s13
 2446              		.loc 1 127 11
 2447 01a2 1F4B     		ldr	r3, .L42+8
 2448 01a4 C3ED007A 		vstr.32	s15, [r3]
 128:./Hardware/Src/IMU.c ****   Zoffset = (Zmax+Zmin)/2;
 2449              		.loc 1 128 18
 2450 01a8 97ED027A 		vldr.32	s14, [r7, #8]
 2451 01ac D7ED037A 		vldr.32	s15, [r7, #12]
 2452 01b0 37EE277A 		vadd.f32	s14, s14, s15
 2453              		.loc 1 128 24
 2454 01b4 F0EE006A 		vmov.f32	s13, #2.0e+0
 2455 01b8 C7EE267A 		vdiv.f32	s15, s14, s13
 2456              		.loc 1 128 11
 2457 01bc 194B     		ldr	r3, .L42+12
 2458 01be C3ED007A 		vstr.32	s15, [r3]
 129:./Hardware/Src/IMU.c ****   Kmx = 2/(Xmax-Xmin);
 2459              		.loc 1 129 16
 2460 01c2 97ED067A 		vldr.32	s14, [r7, #24]
 2461 01c6 D7ED077A 		vldr.32	s15, [r7, #28]
 2462 01ca 37EE677A 		vsub.f32	s14, s14, s15
 2463              		.loc 1 129 10
 2464 01ce F0EE006A 		vmov.f32	s13, #2.0e+0
 2465 01d2 C6EE877A 		vdiv.f32	s15, s13, s14
 2466              		.loc 1 129 7
 2467 01d6 144B     		ldr	r3, .L42+16
 2468 01d8 C3ED007A 		vstr.32	s15, [r3]
 130:./Hardware/Src/IMU.c ****   Kmy = 2/(Ymax-Ymin);
 2469              		.loc 1 130 16
 2470 01dc 97ED047A 		vldr.32	s14, [r7, #16]
 2471 01e0 D7ED057A 		vldr.32	s15, [r7, #20]
 2472 01e4 37EE677A 		vsub.f32	s14, s14, s15
ARM GAS  /tmp/ccGyVhXX.s 			page 46


 2473              		.loc 1 130 10
 2474 01e8 F0EE006A 		vmov.f32	s13, #2.0e+0
 2475 01ec C6EE877A 		vdiv.f32	s15, s13, s14
 2476              		.loc 1 130 7
 2477 01f0 0E4B     		ldr	r3, .L42+20
 2478 01f2 C3ED007A 		vstr.32	s15, [r3]
 131:./Hardware/Src/IMU.c ****   Kmz = 2/(Zmax-Zmin);
 2479              		.loc 1 131 16
 2480 01f6 97ED027A 		vldr.32	s14, [r7, #8]
 2481 01fa D7ED037A 		vldr.32	s15, [r7, #12]
 2482 01fe 37EE677A 		vsub.f32	s14, s14, s15
 2483              		.loc 1 131 10
 2484 0202 F0EE006A 		vmov.f32	s13, #2.0e+0
 2485 0206 C6EE877A 		vdiv.f32	s15, s13, s14
 2486              		.loc 1 131 7
 2487 020a 094B     		ldr	r3, .L42+24
 2488 020c C3ED007A 		vstr.32	s15, [r3]
 132:./Hardware/Src/IMU.c **** }
 2489              		.loc 1 132 1
 2490 0210 00BF     		nop
 2491 0212 2037     		adds	r7, r7, #32
 2492              		.cfi_def_cfa_offset 8
 2493 0214 BD46     		mov	sp, r7
 2494              		.cfi_def_cfa_register 13
 2495              		@ sp needed
 2496 0216 80BD     		pop	{r7, pc}
 2497              	.L43:
 2498              		.align	2
 2499              	.L42:
 2500 0218 00000000 		.word	HMC5883L_data
 2501 021c 00000000 		.word	Xoffset
 2502 0220 00000000 		.word	Yoffset
 2503 0224 00000000 		.word	Zoffset
 2504 0228 00000000 		.word	Kmx
 2505 022c 00000000 		.word	Kmy
 2506 0230 00000000 		.word	Kmz
 2507              		.cfi_endproc
 2508              	.LFE124:
 2510              		.text
 2511              	.Letext0:
 2512              		.file 2 "./Hardware/Inc/IMU.h"
 2513              		.file 3 "/usr/lib/gcc/arm-none-eabi/12.2.1/include/stdint.h"
 2514              		.file 4 "./Hardware/Inc/MPU6050.h"
 2515              		.file 5 "./Hardware/Inc/HMC5883L.h"
 2516              		.file 6 "./Tools/Inc/delay.h"
 2517              		.file 7 "/usr/include/newlib/math.h"
 2518              		.file 8 "./Start/stm32f4xx.h"
ARM GAS  /tmp/ccGyVhXX.s 			page 47

