ARM GAS  /tmp/ccnMGMvc.s 			page 1


   1              		.cpu cortex-m4
   2              		.arch armv7e-m
   3              		.fpu fpv4-sp-d16
   4              		.eabi_attribute 27, 1
   5              		.eabi_attribute 28, 1
   6              		.eabi_attribute 20, 1
   7              		.eabi_attribute 21, 1
   8              		.eabi_attribute 23, 3
   9              		.eabi_attribute 24, 1
  10              		.eabi_attribute 25, 1
  11              		.eabi_attribute 26, 1
  12              		.eabi_attribute 30, 6
  13              		.eabi_attribute 34, 1
  14              		.eabi_attribute 18, 4
  15              		.file	"main.c"
  16              		.text
  17              	.Ltext0:
  18              		.cfi_sections	.debug_frame
  19              		.file 1 "./User/Src/main.c"
  20              		.global	betime
  21              		.section	.bss.betime,"aw",%nobits
  22              		.align	2
  25              	betime:
  26 0000 00000000 		.space	4
  27              		.global	aftime
  28              		.section	.bss.aftime,"aw",%nobits
  29              		.align	2
  32              	aftime:
  33 0000 00000000 		.space	4
  34              		.global	sendbuffer
  35              		.section	.bss.sendbuffer,"aw",%nobits
  36              		.align	2
  39              	sendbuffer:
  40 0000 00000000 		.space	50
  40      00000000 
  40      00000000 
  40      00000000 
  40      00000000 
  41              		.global	betick
  42              		.section	.bss.betick,"aw",%nobits
  43              		.align	2
  46              	betick:
  47 0000 00000000 		.space	4
  48              		.global	aftick
  49              		.section	.bss.aftick,"aw",%nobits
  50              		.align	2
  53              	aftick:
  54 0000 00000000 		.space	4
  55              		.global	times
  56              		.section	.data.times,"aw"
  57              		.align	2
  60              	times:
  61 0000 64000000 		.word	100
  62              		.section	.text.main,"ax",%progbits
  63              		.align	1
  64              		.global	main
  65              		.syntax unified
ARM GAS  /tmp/ccnMGMvc.s 			page 2


  66              		.thumb
  67              		.thumb_func
  69              	main:
  70              	.LFB126:
   1:./User/Src/main.c **** #include "stm32f4xx.h"                  // Device header
   2:./User/Src/main.c **** #include "OLED.h"
   3:./User/Src/main.c **** #include "MPU6050.h"
   4:./User/Src/main.c **** #include "HMC5883L.h"
   5:./User/Src/main.c **** #include "i2c.h"
   6:./User/Src/main.c **** #include "stm32f4xx_rcc.h"
   7:./User/Src/main.c **** #include "Serial.h"
   8:./User/Src/main.c **** #include "IMU.h"
   9:./User/Src/main.c **** 
  10:./User/Src/main.c **** #include "stm32f4xx_usart.h"
  11:./User/Src/main.c **** #include "sysTick.h"
  12:./User/Src/main.c **** #include "usart.h"
  13:./User/Src/main.c **** #include "delay.h"
  14:./User/Src/main.c **** #include "sys.h"
  15:./User/Src/main.c **** #include "i2c_soft.h"
  16:./User/Src/main.c **** #include <stdint.h>
  17:./User/Src/main.c **** #include <string.h>
  18:./User/Src/main.c **** #include "Receiver.h"
  19:./User/Src/main.c **** #include "Motor.h"
  20:./User/Src/main.c **** #include "HMC5883L.h"
  21:./User/Src/main.c **** #include "Pid.h"
  22:./User/Src/main.c **** 
  23:./User/Src/main.c **** //#include "ucos_ii.h"
  24:./User/Src/main.c **** //#include "os_trace_events.h"
  25:./User/Src/main.c **** void Send_PPM(void);
  26:./User/Src/main.c **** void Send_Pose(void);
  27:./User/Src/main.c **** u32 betime = 0, aftime = 0;
  28:./User/Src/main.c **** char sendbuffer[50];
  29:./User/Src/main.c **** u32 betick= 0, aftick = 0;
  30:./User/Src/main.c **** int times = 100;
  31:./User/Src/main.c **** int main(){
  71              		.loc 1 31 11
  72              		.cfi_startproc
  73              		@ args = 0, pretend = 0, frame = 8
  74              		@ frame_needed = 1, uses_anonymous_args = 0
  75 0000 80B5     		push	{r7, lr}
  76              		.cfi_def_cfa_offset 8
  77              		.cfi_offset 7, -8
  78              		.cfi_offset 14, -4
  79 0002 82B0     		sub	sp, sp, #8
  80              		.cfi_def_cfa_offset 16
  81 0004 00AF     		add	r7, sp, #0
  82              		.cfi_def_cfa_register 7
  32:./User/Src/main.c **** 	SystemInit();
  83              		.loc 1 32 2
  84 0006 FFF7FEFF 		bl	SystemInit
  33:./User/Src/main.c **** 	SysTick->LOAD = 0xffffff;
  85              		.loc 1 33 9
  86 000a 344B     		ldr	r3, .L6
  87              		.loc 1 33 16
  88 000c 6FF07F42 		mvn	r2, #-16777216
  89 0010 5A60     		str	r2, [r3, #4]
  34:./User/Src/main.c **** 	SysTick->CTRL|=SysTick_CTRL_ENABLE_Msk; 
ARM GAS  /tmp/ccnMGMvc.s 			page 3


  90              		.loc 1 34 9
  91 0012 324B     		ldr	r3, .L6
  92 0014 1B68     		ldr	r3, [r3]
  93 0016 314A     		ldr	r2, .L6
  94              		.loc 1 34 15
  95 0018 43F00103 		orr	r3, r3, #1
  96 001c 1360     		str	r3, [r2]
  35:./User/Src/main.c **** 	I2CInit();
  97              		.loc 1 35 2
  98 001e FFF7FEFF 		bl	I2CInit
  36:./User/Src/main.c **** 	MPU6050_Init();
  99              		.loc 1 36 2
 100 0022 FFF7FEFF 		bl	MPU6050_Init
  37:./User/Src/main.c **** 	HMC5883L_Init();
 101              		.loc 1 37 2
 102 0026 FFF7FEFF 		bl	HMC5883L_Init
  38:./User/Src/main.c **** 	Delay_ms(5);
 103              		.loc 1 38 2
 104 002a 0520     		movs	r0, #5
 105 002c FFF7FEFF 		bl	Delay_ms
  39:./User/Src/main.c **** 	//HMC5883L_Motify();
  40:./User/Src/main.c **** 	get_MPU6050err();
 106              		.loc 1 40 2
 107 0030 FFF7FEFF 		bl	get_MPU6050err
 108              	.LBB2:
  41:./User/Src/main.c **** 	for(int i=0;i<5;i++) HMC588CL_ReadData(HMC5883L_data);
 109              		.loc 1 41 10
 110 0034 0023     		movs	r3, #0
 111 0036 7B60     		str	r3, [r7, #4]
 112              		.loc 1 41 2
 113 0038 05E0     		b	.L2
 114              	.L3:
 115              		.loc 1 41 23 discriminator 3
 116 003a 2948     		ldr	r0, .L6+4
 117 003c FFF7FEFF 		bl	HMC588CL_ReadData
 118              		.loc 1 41 19 discriminator 3
 119 0040 7B68     		ldr	r3, [r7, #4]
 120 0042 0133     		adds	r3, r3, #1
 121 0044 7B60     		str	r3, [r7, #4]
 122              	.L2:
 123              		.loc 1 41 15 discriminator 1
 124 0046 7B68     		ldr	r3, [r7, #4]
 125 0048 042B     		cmp	r3, #4
 126 004a F6DD     		ble	.L3
 127              	.LBE2:
  42:./User/Src/main.c **** 	uart_init();
 128              		.loc 1 42 2
 129 004c FFF7FEFF 		bl	uart_init
  43:./User/Src/main.c **** 	My_Receiver_Init();
 130              		.loc 1 43 2
 131 0050 FFF7FEFF 		bl	My_Receiver_Init
  44:./User/Src/main.c **** 	Motor_Init();
 132              		.loc 1 44 2
 133 0054 FFF7FEFF 		bl	Motor_Init
  45:./User/Src/main.c **** 	PoseData_Init();
 134              		.loc 1 45 2
 135 0058 FFF7FEFF 		bl	PoseData_Init
ARM GAS  /tmp/ccnMGMvc.s 			page 4


  46:./User/Src/main.c **** 	 betime = SysTick->VAL;
 136              		.loc 1 46 19
 137 005c 1F4B     		ldr	r3, .L6
 138 005e 9B68     		ldr	r3, [r3, #8]
 139              		.loc 1 46 10
 140 0060 204A     		ldr	r2, .L6+8
 141 0062 1360     		str	r3, [r2]
  47:./User/Src/main.c **** 	 betick = SysTick->VAL;
 142              		.loc 1 47 19
 143 0064 1D4B     		ldr	r3, .L6
 144 0066 9B68     		ldr	r3, [r3, #8]
 145              		.loc 1 47 10
 146 0068 1F4A     		ldr	r2, .L6+12
 147 006a 1360     		str	r3, [r2]
 148              	.L5:
 149              	.LBB3:
  48:./User/Src/main.c **** 	while(1){
  49:./User/Src/main.c **** 		MPU6050_READ(MPU6050_data);
 150              		.loc 1 49 3
 151 006c 1F48     		ldr	r0, .L6+16
 152 006e FFF7FEFF 		bl	MPU6050_READ
  50:./User/Src/main.c **** 		HMC588CL_ReadData(HMC5883L_data);
 153              		.loc 1 50 3
 154 0072 1B48     		ldr	r0, .L6+4
 155 0074 FFF7FEFF 		bl	HMC588CL_ReadData
  51:./User/Src/main.c **** 		aftime = SysTick->VAL;
 156              		.loc 1 51 19
 157 0078 184B     		ldr	r3, .L6
 158 007a 9B68     		ldr	r3, [r3, #8]
 159              		.loc 1 51 10
 160 007c 1C4A     		ldr	r2, .L6+20
 161 007e 1360     		str	r3, [r2]
  52:./User/Src/main.c **** 		if((betime - aftime)<0) betime += SysTick->LOAD;
  53:./User/Src/main.c **** 		float intertime = (betime-aftime)/2000000.0f;
 162              		.loc 1 53 28
 163 0080 184B     		ldr	r3, .L6+8
 164 0082 1A68     		ldr	r2, [r3]
 165 0084 1A4B     		ldr	r3, .L6+20
 166 0086 1B68     		ldr	r3, [r3]
 167 0088 D31A     		subs	r3, r2, r3
 168              		.loc 1 53 36
 169 008a 07EE903A 		vmov	s15, r3	@ int
 170 008e B8EE677A 		vcvt.f32.u32	s14, s15
 171              		.loc 1 53 9
 172 0092 DFED186A 		vldr.32	s13, .L6+24
 173 0096 C7EE267A 		vdiv.f32	s15, s14, s13
 174 009a C7ED007A 		vstr.32	s15, [r7]
  54:./User/Src/main.c **** 		betime = aftime;
 175              		.loc 1 54 10
 176 009e 144B     		ldr	r3, .L6+20
 177 00a0 1B68     		ldr	r3, [r3]
 178 00a2 104A     		ldr	r2, .L6+8
 179 00a4 1360     		str	r3, [r2]
  55:./User/Src/main.c **** 		CalAngle(&angle, intertime);
 180              		.loc 1 55 3
 181 00a6 97ED000A 		vldr.32	s0, [r7]
 182 00aa 1348     		ldr	r0, .L6+28
ARM GAS  /tmp/ccnMGMvc.s 			page 5


 183 00ac FFF7FEFF 		bl	CalAngle
  56:./User/Src/main.c **** 		aftick = SysTick->VAL;
 184              		.loc 1 56 19
 185 00b0 0A4B     		ldr	r3, .L6
 186 00b2 9B68     		ldr	r3, [r3, #8]
 187              		.loc 1 56 10
 188 00b4 114A     		ldr	r2, .L6+32
 189 00b6 1360     		str	r3, [r2]
  57:./User/Src/main.c **** 		 
  58:./User/Src/main.c **** 		 if((betick- aftick)<0) betick += SysTick->LOAD;
  59:./User/Src/main.c **** 		//姿态上传和PID反馈控制的时间控制在0.025s/次
  60:./User/Src/main.c **** 		 
  61:./User/Src/main.c **** 		 if(betick-aftick>50000){
 190              		.loc 1 61 13
 191 00b8 0B4B     		ldr	r3, .L6+12
 192 00ba 1A68     		ldr	r2, [r3]
 193 00bc 0F4B     		ldr	r3, .L6+32
 194 00be 1B68     		ldr	r3, [r3]
 195 00c0 D31A     		subs	r3, r2, r3
 196              		.loc 1 61 6
 197 00c2 4CF25032 		movw	r2, #50000
 198 00c6 9342     		cmp	r3, r2
 199 00c8 D0D9     		bls	.L5
  62:./User/Src/main.c **** 			// Send_PPM();
  63:./User/Src/main.c **** 			  Send_Elua();
 200              		.loc 1 63 6
 201 00ca FFF7FEFF 		bl	Send_Elua
  64:./User/Src/main.c **** 			  PID_Controller_DL();
 202              		.loc 1 64 6
 203 00ce FFF7FEFF 		bl	PID_Controller_DL
  65:./User/Src/main.c **** 			// Send_Pose();
  66:./User/Src/main.c **** 			betick = aftick;
 204              		.loc 1 66 11
 205 00d2 0A4B     		ldr	r3, .L6+32
 206 00d4 1B68     		ldr	r3, [r3]
 207 00d6 044A     		ldr	r2, .L6+12
 208 00d8 1360     		str	r3, [r2]
 209              	.LBE3:
  48:./User/Src/main.c **** 		MPU6050_READ(MPU6050_data);
 210              		.loc 1 48 10
 211 00da C7E7     		b	.L5
 212              	.L7:
 213              		.align	2
 214              	.L6:
 215 00dc 10E000E0 		.word	-536813552
 216 00e0 00000000 		.word	HMC5883L_data
 217 00e4 00000000 		.word	betime
 218 00e8 00000000 		.word	betick
 219 00ec 00000000 		.word	MPU6050_data
 220 00f0 00000000 		.word	aftime
 221 00f4 0024F449 		.word	1240736768
 222 00f8 00000000 		.word	angle
 223 00fc 00000000 		.word	aftick
 224              		.cfi_endproc
 225              	.LFE126:
 227              		.section	.rodata
 228              		.align	2
ARM GAS  /tmp/ccnMGMvc.s 			page 6


 229              	.LC0:
 230 0000 25642025 		.ascii	"%d %d %d %d %d %d %d %d %d\012\000"
 230      64202564 
 230      20256420 
 230      25642025 
 230      64202564 
 231              		.section	.text.Send_PPM,"ax",%progbits
 232              		.align	1
 233              		.global	Send_PPM
 234              		.syntax unified
 235              		.thumb
 236              		.thumb_func
 238              	Send_PPM:
 239              	.LFB127:
  67:./User/Src/main.c **** 		//  }
  68:./User/Src/main.c **** 	}
  69:./User/Src/main.c **** }
  70:./User/Src/main.c **** 
  71:./User/Src/main.c **** 
  72:./User/Src/main.c **** 
  73:./User/Src/main.c **** 
  74:./User/Src/main.c **** }
  75:./User/Src/main.c **** void Send_PPM(void){
 240              		.loc 1 75 20
 241              		.cfi_startproc
 242              		@ args = 0, pretend = 0, frame = 112
 243              		@ frame_needed = 1, uses_anonymous_args = 0
 244 0000 F0B5     		push	{r4, r5, r6, r7, lr}
 245              		.cfi_def_cfa_offset 20
 246              		.cfi_offset 4, -20
 247              		.cfi_offset 5, -16
 248              		.cfi_offset 6, -12
 249              		.cfi_offset 7, -8
 250              		.cfi_offset 14, -4
 251 0002 A5B0     		sub	sp, sp, #148
 252              		.cfi_def_cfa_offset 168
 253 0004 08AF     		add	r7, sp, #32
 254              		.cfi_def_cfa 7, 136
  76:./User/Src/main.c **** 	char ppmbuffer[100];
  77:./User/Src/main.c **** 	sprintf(ppmbuffer,"%d %d %d %d %d %d %d %d %d\n",PPM_Data[0],PPM_Data[1],PPM_Data[2],PPM_Data[3],P
 255              		.loc 1 77 59
 256 0006 194B     		ldr	r3, .L9
 257 0008 1B88     		ldrh	r3, [r3]
 258              		.loc 1 77 2
 259 000a 9C46     		mov	ip, r3
 260              		.loc 1 77 71
 261 000c 174B     		ldr	r3, .L9
 262 000e 5B88     		ldrh	r3, [r3, #2]
 263              		.loc 1 77 2
 264 0010 9E46     		mov	lr, r3
 265              		.loc 1 77 83
 266 0012 164B     		ldr	r3, .L9
 267 0014 9B88     		ldrh	r3, [r3, #4]
 268              		.loc 1 77 2
 269 0016 1A46     		mov	r2, r3
 270              		.loc 1 77 95
 271 0018 144B     		ldr	r3, .L9
ARM GAS  /tmp/ccnMGMvc.s 			page 7


 272 001a DB88     		ldrh	r3, [r3, #6]
 273              		.loc 1 77 2
 274 001c 1946     		mov	r1, r3
 275              		.loc 1 77 107
 276 001e 134B     		ldr	r3, .L9
 277 0020 1B89     		ldrh	r3, [r3, #8]
 278              		.loc 1 77 2
 279 0022 1C46     		mov	r4, r3
 280              		.loc 1 77 119
 281 0024 114B     		ldr	r3, .L9
 282 0026 5B89     		ldrh	r3, [r3, #10]
 283              		.loc 1 77 2
 284 0028 1D46     		mov	r5, r3
 285              		.loc 1 77 131
 286 002a 104B     		ldr	r3, .L9
 287 002c 9B89     		ldrh	r3, [r3, #12]
 288              		.loc 1 77 2
 289 002e 1E46     		mov	r6, r3
 290              		.loc 1 77 143
 291 0030 0E4B     		ldr	r3, .L9
 292 0032 DB89     		ldrh	r3, [r3, #14]
 293              		.loc 1 77 2
 294 0034 7B60     		str	r3, [r7, #4]
 295              		.loc 1 77 155
 296 0036 0D4B     		ldr	r3, .L9
 297 0038 1B8A     		ldrh	r3, [r3, #16]
 298              		.loc 1 77 2
 299 003a 07F10C00 		add	r0, r7, #12
 300 003e 0693     		str	r3, [sp, #24]
 301 0040 7B68     		ldr	r3, [r7, #4]
 302 0042 0593     		str	r3, [sp, #20]
 303 0044 0496     		str	r6, [sp, #16]
 304 0046 0395     		str	r5, [sp, #12]
 305 0048 0294     		str	r4, [sp, #8]
 306 004a 0191     		str	r1, [sp, #4]
 307 004c 0092     		str	r2, [sp]
 308 004e 7346     		mov	r3, lr
 309 0050 6246     		mov	r2, ip
 310 0052 0749     		ldr	r1, .L9+4
 311 0054 FFF7FEFF 		bl	sprintf
  78:./User/Src/main.c **** 	USARTSendStr(USART1,ppmbuffer);
 312              		.loc 1 78 2
 313 0058 07F10C03 		add	r3, r7, #12
 314 005c 1946     		mov	r1, r3
 315 005e 0548     		ldr	r0, .L9+8
 316 0060 FFF7FEFF 		bl	USARTSendStr
  79:./User/Src/main.c **** }
 317              		.loc 1 79 1
 318 0064 00BF     		nop
 319 0066 7437     		adds	r7, r7, #116
 320              		.cfi_def_cfa_offset 20
 321 0068 BD46     		mov	sp, r7
 322              		.cfi_def_cfa_register 13
 323              		@ sp needed
 324 006a F0BD     		pop	{r4, r5, r6, r7, pc}
 325              	.L10:
 326              		.align	2
ARM GAS  /tmp/ccnMGMvc.s 			page 8


 327              	.L9:
 328 006c 00000000 		.word	PPM_Data
 329 0070 00000000 		.word	.LC0
 330 0074 00100140 		.word	1073811456
 331              		.cfi_endproc
 332              	.LFE127:
 334              		.section	.text.get_MPU6050err,"ax",%progbits
 335              		.align	1
 336              		.global	get_MPU6050err
 337              		.syntax unified
 338              		.thumb
 339              		.thumb_func
 341              	get_MPU6050err:
 342              	.LFB128:
  80:./User/Src/main.c **** void get_MPU6050err(void){
 343              		.loc 1 80 26
 344              		.cfi_startproc
 345              		@ args = 0, pretend = 0, frame = 16
 346              		@ frame_needed = 1, uses_anonymous_args = 0
 347 0000 80B5     		push	{r7, lr}
 348              		.cfi_def_cfa_offset 8
 349              		.cfi_offset 7, -8
 350              		.cfi_offset 14, -4
 351 0002 84B0     		sub	sp, sp, #16
 352              		.cfi_def_cfa_offset 24
 353 0004 00AF     		add	r7, sp, #0
 354              		.cfi_def_cfa_register 7
  81:./User/Src/main.c ****   float Gyro_Xerrsum,Gyro_Yerrsum,Gyro_Zerrsum = 0;
 355              		.loc 1 81 35
 356 0006 4FF00003 		mov	r3, #0
 357 000a 7B60     		str	r3, [r7, #4]	@ float
 358              	.LBB4:
  82:./User/Src/main.c ****   for(int i=0;i<times;i++){
 359              		.loc 1 82 11
 360 000c 0023     		movs	r3, #0
 361 000e 3B60     		str	r3, [r7]
 362              		.loc 1 82 3
 363 0010 2CE0     		b	.L12
 364              	.L13:
  83:./User/Src/main.c **** 	MPU6050_READ(MPU6050_data);
 365              		.loc 1 83 2 discriminator 3
 366 0012 2E48     		ldr	r0, .L14
 367 0014 FFF7FEFF 		bl	MPU6050_READ
  84:./User/Src/main.c ****     Gyro_Xerrsum += MPU6050_data[4];
 368              		.loc 1 84 33 discriminator 3
 369 0018 2C4B     		ldr	r3, .L14
 370 001a B3F90830 		ldrsh	r3, [r3, #8]
 371              		.loc 1 84 18 discriminator 3
 372 001e 07EE903A 		vmov	s15, r3	@ int
 373 0022 F8EEE77A 		vcvt.f32.s32	s15, s15
 374 0026 97ED037A 		vldr.32	s14, [r7, #12]
 375 002a 77EE277A 		vadd.f32	s15, s14, s15
 376 002e C7ED037A 		vstr.32	s15, [r7, #12]
  85:./User/Src/main.c **** 	Gyro_Yerrsum += MPU6050_data[5];
 377              		.loc 1 85 30 discriminator 3
 378 0032 264B     		ldr	r3, .L14
 379 0034 B3F90A30 		ldrsh	r3, [r3, #10]
ARM GAS  /tmp/ccnMGMvc.s 			page 9


 380              		.loc 1 85 15 discriminator 3
 381 0038 07EE903A 		vmov	s15, r3	@ int
 382 003c F8EEE77A 		vcvt.f32.s32	s15, s15
 383 0040 97ED027A 		vldr.32	s14, [r7, #8]
 384 0044 77EE277A 		vadd.f32	s15, s14, s15
 385 0048 C7ED027A 		vstr.32	s15, [r7, #8]
  86:./User/Src/main.c **** 	Gyro_Zerrsum += MPU6050_data[6];
 386              		.loc 1 86 30 discriminator 3
 387 004c 1F4B     		ldr	r3, .L14
 388 004e B3F90C30 		ldrsh	r3, [r3, #12]
 389              		.loc 1 86 15 discriminator 3
 390 0052 07EE903A 		vmov	s15, r3	@ int
 391 0056 F8EEE77A 		vcvt.f32.s32	s15, s15
 392 005a 97ED017A 		vldr.32	s14, [r7, #4]
 393 005e 77EE277A 		vadd.f32	s15, s14, s15
 394 0062 C7ED017A 		vstr.32	s15, [r7, #4]
  82:./User/Src/main.c **** 	MPU6050_READ(MPU6050_data);
 395              		.loc 1 82 24 discriminator 3
 396 0066 3B68     		ldr	r3, [r7]
 397 0068 0133     		adds	r3, r3, #1
 398 006a 3B60     		str	r3, [r7]
 399              	.L12:
  82:./User/Src/main.c **** 	MPU6050_READ(MPU6050_data);
 400              		.loc 1 82 16 discriminator 1
 401 006c 184B     		ldr	r3, .L14+4
 402 006e 1B68     		ldr	r3, [r3]
 403 0070 3A68     		ldr	r2, [r7]
 404 0072 9A42     		cmp	r2, r3
 405 0074 CDDB     		blt	.L13
 406              	.LBE4:
  87:./User/Src/main.c ****   }
  88:./User/Src/main.c ****   Gyro_Xerr = Gyro_Xerrsum/times;
 407              		.loc 1 88 27
 408 0076 164B     		ldr	r3, .L14+4
 409 0078 1B68     		ldr	r3, [r3]
 410 007a 07EE903A 		vmov	s15, r3	@ int
 411 007e B8EEE77A 		vcvt.f32.s32	s14, s15
 412 0082 D7ED036A 		vldr.32	s13, [r7, #12]
 413 0086 C6EE877A 		vdiv.f32	s15, s13, s14
 414              		.loc 1 88 13
 415 008a 124B     		ldr	r3, .L14+8
 416 008c C3ED007A 		vstr.32	s15, [r3]
  89:./User/Src/main.c ****   Gyro_Yerr = Gyro_Yerrsum/times;
 417              		.loc 1 89 27
 418 0090 0F4B     		ldr	r3, .L14+4
 419 0092 1B68     		ldr	r3, [r3]
 420 0094 07EE903A 		vmov	s15, r3	@ int
 421 0098 B8EEE77A 		vcvt.f32.s32	s14, s15
 422 009c D7ED026A 		vldr.32	s13, [r7, #8]
 423 00a0 C6EE877A 		vdiv.f32	s15, s13, s14
 424              		.loc 1 89 13
 425 00a4 0C4B     		ldr	r3, .L14+12
 426 00a6 C3ED007A 		vstr.32	s15, [r3]
  90:./User/Src/main.c ****   Gyro_Zerr = Gyro_Zerrsum/times;
 427              		.loc 1 90 27
 428 00aa 094B     		ldr	r3, .L14+4
 429 00ac 1B68     		ldr	r3, [r3]
ARM GAS  /tmp/ccnMGMvc.s 			page 10


 430 00ae 07EE903A 		vmov	s15, r3	@ int
 431 00b2 B8EEE77A 		vcvt.f32.s32	s14, s15
 432 00b6 D7ED016A 		vldr.32	s13, [r7, #4]
 433 00ba C6EE877A 		vdiv.f32	s15, s13, s14
 434              		.loc 1 90 13
 435 00be 074B     		ldr	r3, .L14+16
 436 00c0 C3ED007A 		vstr.32	s15, [r3]
  91:./User/Src/main.c **** }
 437              		.loc 1 91 1
 438 00c4 00BF     		nop
 439 00c6 1037     		adds	r7, r7, #16
 440              		.cfi_def_cfa_offset 8
 441 00c8 BD46     		mov	sp, r7
 442              		.cfi_def_cfa_register 13
 443              		@ sp needed
 444 00ca 80BD     		pop	{r7, pc}
 445              	.L15:
 446              		.align	2
 447              	.L14:
 448 00cc 00000000 		.word	MPU6050_data
 449 00d0 00000000 		.word	times
 450 00d4 00000000 		.word	Gyro_Xerr
 451 00d8 00000000 		.word	Gyro_Yerr
 452 00dc 00000000 		.word	Gyro_Zerr
 453              		.cfi_endproc
 454              	.LFE128:
 456              		.global	__aeabi_f2d
 457              		.global	__aeabi_dmul
 458              		.global	__aeabi_d2iz
 459              		.section	.rodata
 460              		.align	2
 461              	.LC1:
 462 001c 252E3364 		.ascii	"%.3d %.3d %.3d\012\000"
 462      20252E33 
 462      6420252E 
 462      33640A00 
 463              		.section	.text.Send_Pose,"ax",%progbits
 464              		.align	1
 465              		.global	Send_Pose
 466              		.syntax unified
 467              		.thumb
 468              		.thumb_func
 470              	Send_Pose:
 471              	.LFB129:
  92:./User/Src/main.c **** void Send_Pose(void){
 472              		.loc 1 92 21
 473              		.cfi_startproc
 474              		@ args = 0, pretend = 0, frame = 56
 475              		@ frame_needed = 1, uses_anonymous_args = 0
 476 0000 B0B5     		push	{r4, r5, r7, lr}
 477              		.cfi_def_cfa_offset 16
 478              		.cfi_offset 4, -16
 479              		.cfi_offset 5, -12
 480              		.cfi_offset 7, -8
 481              		.cfi_offset 14, -4
 482 0002 90B0     		sub	sp, sp, #64
 483              		.cfi_def_cfa_offset 80
ARM GAS  /tmp/ccnMGMvc.s 			page 11


 484 0004 02AF     		add	r7, sp, #8
 485              		.cfi_def_cfa 7, 72
  93:./User/Src/main.c **** 	char sendbuffer[50];
  94:./User/Src/main.c **** 	sprintf(sendbuffer,"%.3d %.3d %.3d\n",(int)(angle.pitch*57.3),(int)(angle.roll*57.3),(int)(angle.y
 486              		.loc 1 94 51
 487 0006 244B     		ldr	r3, .L17+8
 488 0008 1B68     		ldr	r3, [r3]	@ float
 489 000a 1846     		mov	r0, r3	@ float
 490 000c FFF7FEFF 		bl	__aeabi_f2d
 491              		.loc 1 94 57
 492 0010 1FA3     		adr	r3, .L17
 493 0012 D3E90023 		ldrd	r2, [r3]
 494 0016 FFF7FEFF 		bl	__aeabi_dmul
 495 001a 0246     		mov	r2, r0
 496 001c 0B46     		mov	r3, r1
 497              		.loc 1 94 2
 498 001e 1046     		mov	r0, r2
 499 0020 1946     		mov	r1, r3
 500 0022 FFF7FEFF 		bl	__aeabi_d2iz
 501 0026 0446     		mov	r4, r0
 502              		.loc 1 94 75
 503 0028 1B4B     		ldr	r3, .L17+8
 504 002a 5B68     		ldr	r3, [r3, #4]	@ float
 505 002c 1846     		mov	r0, r3	@ float
 506 002e FFF7FEFF 		bl	__aeabi_f2d
 507              		.loc 1 94 80
 508 0032 17A3     		adr	r3, .L17
 509 0034 D3E90023 		ldrd	r2, [r3]
 510 0038 FFF7FEFF 		bl	__aeabi_dmul
 511 003c 0246     		mov	r2, r0
 512 003e 0B46     		mov	r3, r1
 513              		.loc 1 94 2
 514 0040 1046     		mov	r0, r2
 515 0042 1946     		mov	r1, r3
 516 0044 FFF7FEFF 		bl	__aeabi_d2iz
 517 0048 0546     		mov	r5, r0
 518              		.loc 1 94 98
 519 004a 134B     		ldr	r3, .L17+8
 520 004c 9B68     		ldr	r3, [r3, #8]	@ float
 521 004e 1846     		mov	r0, r3	@ float
 522 0050 FFF7FEFF 		bl	__aeabi_f2d
 523              		.loc 1 94 102
 524 0054 0EA3     		adr	r3, .L17
 525 0056 D3E90023 		ldrd	r2, [r3]
 526 005a FFF7FEFF 		bl	__aeabi_dmul
 527 005e 0246     		mov	r2, r0
 528 0060 0B46     		mov	r3, r1
 529              		.loc 1 94 2
 530 0062 1046     		mov	r0, r2
 531 0064 1946     		mov	r1, r3
 532 0066 FFF7FEFF 		bl	__aeabi_d2iz
 533 006a 0346     		mov	r3, r0
 534 006c 381D     		adds	r0, r7, #4
 535 006e 0093     		str	r3, [sp]
 536 0070 2B46     		mov	r3, r5
 537 0072 2246     		mov	r2, r4
 538 0074 0949     		ldr	r1, .L17+12
ARM GAS  /tmp/ccnMGMvc.s 			page 12


 539 0076 FFF7FEFF 		bl	sprintf
  95:./User/Src/main.c **** 	USARTSendStr(USART1, sendbuffer);
 540              		.loc 1 95 2
 541 007a 3B1D     		adds	r3, r7, #4
 542 007c 1946     		mov	r1, r3
 543 007e 0848     		ldr	r0, .L17+16
 544 0080 FFF7FEFF 		bl	USARTSendStr
  96:./User/Src/main.c **** }
 545              		.loc 1 96 1
 546 0084 00BF     		nop
 547 0086 3837     		adds	r7, r7, #56
 548              		.cfi_def_cfa_offset 16
 549 0088 BD46     		mov	sp, r7
 550              		.cfi_def_cfa_register 13
 551              		@ sp needed
 552 008a B0BD     		pop	{r4, r5, r7, pc}
 553              	.L18:
 554 008c AFF30080 		.align	3
 555              	.L17:
 556 0090 66666666 		.word	1717986918
 557 0094 66A64C40 		.word	1078765158
 558 0098 00000000 		.word	angle
 559 009c 1C000000 		.word	.LC1
 560 00a0 00100140 		.word	1073811456
 561              		.cfi_endproc
 562              	.LFE129:
 564              		.text
 565              	.Letext0:
 566              		.file 2 "/usr/lib/gcc/arm-none-eabi/12.2.1/include/stdint.h"
 567              		.file 3 "./Start/core_cm4.h"
 568              		.file 4 "./Start/stm32f4xx.h"
 569              		.file 5 "./Hardware/Inc/MPU6050.h"
 570              		.file 6 "./Hardware/Inc/HMC5883L.h"
 571              		.file 7 "./Hardware/Inc/IMU.h"
 572              		.file 8 "./Hardware/Inc/Receiver.h"
 573              		.file 9 "./Tools/Inc/Pid.h"
 574              		.file 10 "./Hardware/Inc/Serial.h"
 575              		.file 11 "./Hardware/Inc/Motor.h"
 576              		.file 12 "./Tools/Inc/delay.h"
 577              		.file 13 "./Tools/Inc/i2c_soft.h"
 578              		.file 14 "./Start/system_stm32f4xx.h"
 579              		.file 15 "/usr/include/newlib/stdio.h"
ARM GAS  /tmp/ccnMGMvc.s 			page 13

