ARM GAS  /tmp/cclDNmC3.s 			page 1


   1              		.cpu cortex-m4
   2              		.arch armv7e-m
   3              		.fpu fpv4-sp-d16
   4              		.eabi_attribute 27, 1
   5              		.eabi_attribute 28, 1
   6              		.eabi_attribute 20, 1
   7              		.eabi_attribute 21, 1
   8              		.eabi_attribute 23, 3
   9              		.eabi_attribute 24, 1
  10              		.eabi_attribute 25, 1
  11              		.eabi_attribute 26, 1
  12              		.eabi_attribute 30, 6
  13              		.eabi_attribute 34, 1
  14              		.eabi_attribute 18, 4
  15              		.file	"Pid.c"
  16              		.text
  17              	.Ltext0:
  18              		.cfi_sections	.debug_frame
  19              		.file 1 "./Tools/Src/Pid.c"
  20              		.global	Motor1_PWM
  21              		.section	.bss.Motor1_PWM,"aw",%nobits
  22              		.align	1
  25              	Motor1_PWM:
  26 0000 0000     		.space	2
  27              		.global	Motor2_PWM
  28              		.section	.bss.Motor2_PWM,"aw",%nobits
  29              		.align	1
  32              	Motor2_PWM:
  33 0000 0000     		.space	2
  34              		.global	Motor3_PWM
  35              		.section	.bss.Motor3_PWM,"aw",%nobits
  36              		.align	1
  39              	Motor3_PWM:
  40 0000 0000     		.space	2
  41              		.global	Motor4_PWM
  42              		.section	.bss.Motor4_PWM,"aw",%nobits
  43              		.align	1
  46              	Motor4_PWM:
  47 0000 0000     		.space	2
  48              		.global	Oil_PWM
  49              		.section	.bss.Oil_PWM,"aw",%nobits
  50              		.align	1
  53              	Oil_PWM:
  54 0000 0000     		.space	2
  55              		.global	Pitch_PWM
  56              		.section	.bss.Pitch_PWM,"aw",%nobits
  57              		.align	1
  60              	Pitch_PWM:
  61 0000 0000     		.space	2
  62              		.global	Roll_PWM
  63              		.section	.bss.Roll_PWM,"aw",%nobits
  64              		.align	1
  67              	Roll_PWM:
  68 0000 0000     		.space	2
  69              		.global	Yaw_PWM
  70              		.section	.bss.Yaw_PWM,"aw",%nobits
  71              		.align	1
ARM GAS  /tmp/cclDNmC3.s 			page 2


  74              	Yaw_PWM:
  75 0000 0000     		.space	2
  76              		.global	PID
  77              		.section	.bss.PID,"aw",%nobits
  78              		.align	2
  81              	PID:
  82 0000 00000000 		.space	48
  82      00000000 
  82      00000000 
  82      00000000 
  82      00000000 
  83              		.global	Kp
  84              		.section	.data.Kp,"aw"
  85              		.align	2
  88              	Kp:
  89 0000 00006040 		.word	1080033280
  90              		.global	Ki
  91              		.section	.bss.Ki,"aw",%nobits
  92              		.align	2
  95              	Ki:
  96 0000 00000000 		.space	4
  97              		.global	Kd
  98              		.section	.data.Kd,"aw"
  99              		.align	2
 102              	Kd:
 103 0000 0000F041 		.word	1106247680
 104              		.global	Kp_IN
 105              		.section	.data.Kp_IN,"aw"
 106              		.align	2
 109              	Kp_IN:
 110 0000 00000040 		.word	1073741824
 111              		.global	Ki_IN
 112              		.section	.bss.Ki_IN,"aw",%nobits
 113              		.align	2
 116              	Ki_IN:
 117 0000 00000000 		.space	4
 118              		.global	Kd_IN
 119              		.section	.data.Kd_IN,"aw"
 120              		.align	2
 123              	Kd_IN:
 124 0000 0000C841 		.word	1103626240
 125              		.global	Kp_OUT
 126              		.section	.data.Kp_OUT,"aw"
 127              		.align	2
 130              	Kp_OUT:
 131 0000 0000803F 		.word	1065353216
 132              		.global	Ki_OUT
 133              		.section	.bss.Ki_OUT,"aw",%nobits
 134              		.align	2
 137              	Ki_OUT:
 138 0000 00000000 		.space	4
 139              		.global	Kd_OUT
 140              		.section	.data.Kd_OUT,"aw"
 141              		.align	2
 144              	Kd_OUT:
 145 0000 00004040 		.word	1077936128
 146              		.section	.text.PID_Controller,"ax",%progbits
ARM GAS  /tmp/cclDNmC3.s 			page 3


 147              		.align	1
 148              		.global	PID_Controller
 149              		.syntax unified
 150              		.thumb
 151              		.thumb_func
 153              	PID_Controller:
 154              	.LFB126:
   1:./Tools/Src/Pid.c **** #include "stm32f4xx.h"
   2:./Tools/Src/Pid.c **** 
   3:./Tools/Src/Pid.c **** #include "Pid.h"
   4:./Tools/Src/Pid.c **** #include "IMU.h"
   5:./Tools/Src/Pid.c **** #include "Motor.h"
   6:./Tools/Src/Pid.c **** #include "Receiver.h"
   7:./Tools/Src/Pid.c **** 
   8:./Tools/Src/Pid.c **** #include <stdio.h>
   9:./Tools/Src/Pid.c **** 
  10:./Tools/Src/Pid.c **** int16_t Motor1_PWM;
  11:./Tools/Src/Pid.c **** int16_t Motor2_PWM;
  12:./Tools/Src/Pid.c **** int16_t Motor3_PWM;
  13:./Tools/Src/Pid.c **** int16_t Motor4_PWM;
  14:./Tools/Src/Pid.c **** 
  15:./Tools/Src/Pid.c **** int16_t		Oil_PWM;
  16:./Tools/Src/Pid.c **** int16_t 	Pitch_PWM;
  17:./Tools/Src/Pid.c **** int16_t 	Roll_PWM;
  18:./Tools/Src/Pid.c **** int16_t 	Yaw_PWM;
  19:./Tools/Src/Pid.c **** 
  20:./Tools/Src/Pid.c **** PID_Ctrl PID;
  21:./Tools/Src/Pid.c **** 
  22:./Tools/Src/Pid.c **** float Kp = 3.5f;
  23:./Tools/Src/Pid.c **** float Ki = 0.00f;
  24:./Tools/Src/Pid.c **** float Kd = 30.0f;
  25:./Tools/Src/Pid.c **** 
  26:./Tools/Src/Pid.c **** float Kp_IN = 2.0f;
  27:./Tools/Src/Pid.c **** float Ki_IN = 0.0f;
  28:./Tools/Src/Pid.c **** float Kd_IN = 25.0f;
  29:./Tools/Src/Pid.c **** float Kp_OUT = 1.0f;
  30:./Tools/Src/Pid.c **** float Ki_OUT = 0.0f;
  31:./Tools/Src/Pid.c **** float Kd_OUT = 3.0f;
  32:./Tools/Src/Pid.c **** 
  33:./Tools/Src/Pid.c **** /*Âú®ËØ•Êñá‰ª∂‰∏≠ÔºåÈúÄË¶ÅÂÆûÁé∞PIDÂèçÈ¶àÊéßÂà∂*/
  34:./Tools/Src/Pid.c **** /*ËßíÂ∫¶‰∏∫Êàë‰ª¨ÁöÑÈ¢ÑËÆæÂÄºÔºåËØ•È¢ÑËÆæÂÄºÈúÄË¶ÅÁî±ÈÅ•ÊéßÂô®Êï∞ÊçÆÁÆóÂá∫Êù•*/
  35:./Tools/Src/Pid.c **** 
  36:./Tools/Src/Pid.c **** /*ËøôÈáåÔºåÊàë‰ª¨ÊöÇÊó∂Â∞ÜËßíÂ∫¶ÁöÑËåÉÂõ¥ËÆæÂÆö‰∏∫+-30(PitchÂíåRollËßíÂ∞±ÊòØËøô‰∏™ËåÉÂõ¥)*/
  37:./Tools/Src/Pid.c **** /*YawËßíÂèØ‰ª•Ê†πÊçÆÈÅ•ÊéßÂô®ÁöÑËΩ¨Âä®ÂπÖÂ∫¶ÂÜ≥ÂÆöÂÖ∂ÂèòÂåñÁöÑÂø´ÊÖ¢*/
  38:./Tools/Src/Pid.c **** 
  39:./Tools/Src/Pid.c **** /*ËØ•ÂáΩÊï∞Áî®‰∫éËÆ°ÁÆóPIDËæìÂá∫*/
  40:./Tools/Src/Pid.c **** //È¶ñÂÖàËß£ÊûêÈÅ•ÊéßÂô®ÁöÑÊï∞ÊçÆÔºå‰æùÊçÆËØ•Êï∞ÊçÆÁÆóÂá∫Oil_PWM
  41:./Tools/Src/Pid.c **** //‰πãÂêéÊ†πÊçÆÂÖ∂‰ªñÈÄöÈÅìÁöÑÊï∞ÊçÆÔºåÊç¢ÁÆóÂá∫ÁõÆÊ†áËßíÂ∫¶
  42:./Tools/Src/Pid.c **** //ÁÑ∂ÂêéÂÜç‰æùÊçÆÁõÆÊ†áËßíÂ∫¶‰∏éÂΩìÂâçËßíÂ∫¶ÁöÑÂ∑ÆÂÄºÔºåËÆ°ÁÆóPIDËæìÂá∫
  43:./Tools/Src/Pid.c **** //‰πüÂç≥ËÆ°ÁÆóPitch_PWM  Roll_PWM  Yaw_PWM
  44:./Tools/Src/Pid.c **** //ÁÑ∂ÂêéËøõË°åÂè†Âä†ÔºåÊúÄÂêéÊ†πÊçÆÂè†Âä†Êï∞ÊçÆÊù•Ë∞ÉÊï¥ÁîµÊú∫ËΩ¨ÈÄü
  45:./Tools/Src/Pid.c **** 
  46:./Tools/Src/Pid.c **** //ÈÅ•ÊéßÂô®ÈÄöÈÅìËØ¥ÊòéÂ¶Ç‰∏ã
  47:./Tools/Src/Pid.c **** //Â∑¶Ëàµ‰∏ä‰∏ã:È£ûÊú∫ÂâçËøõÔºåÂêéÈÄÄ			(Pitch_PWM)PPM2 ‰∏ä1000Ôºå‰∏ã2000
  48:./Tools/Src/Pid.c **** //Â∑¶ËàµÂ∑¶Âè≥:È£ûÊú∫Â∑¶ÂÄæÂè≥ÂÄæÔºå			(Roll_PWM)PPM4  Â∑¶1000ÔºåÂè≥2000
  49:./Tools/Src/Pid.c **** //Âè≥Ëàµ‰∏ä‰∏ã:È£ûÊú∫ÂûÇÁõ¥‰∏ä‰∏ãËøêÂä® 		(Oil_PWM)PPM3   ‰∏ä2000Ôºå‰∏ã1000
  50:./Tools/Src/Pid.c **** //Âè≥ËàµÂ∑¶Âè≥:È£ûÊú∫Êú∫Â§¥ÂêëÂ∑¶ÊàñÂêëÂè≥ËΩ¨Âä®	(Yaw_PWM)PPM1	Â∑¶1000ÔºåÂè≥2000
ARM GAS  /tmp/cclDNmC3.s 			page 4


  51:./Tools/Src/Pid.c **** //ËøòË¶ÅÈÄâ‰∏Ä‰∏™ÈÄöÈÅìÊù•Áõ¥Êé•ÂÖ≥Èó≠ÁîµÊú∫ÔºåËá™Ë°åÈÄâÊã©
  52:./Tools/Src/Pid.c **** //Êàë‰ª¨ÂèØ‰ª•ÈÄâÁî®ÈÄöÈÅì5(PPM5)ÊàñËÄÖÈÄöÈÅì7(PPM7)
  53:./Tools/Src/Pid.c **** //ÂæÄ‰∏ã‰∏∫1000ÔºåÂæÄ‰∏ä‰∏∫2000Ôºå‰∏≠Èó¥‰∏∫1500
  54:./Tools/Src/Pid.c **** 
  55:./Tools/Src/Pid.c **** //ÁîµÊú∫ÂÆûÈôÖÂ§ßÊ¶Ç‰ºöÂú®1700ÁöÑÊó∂ÂÄô‰ºöÂ∏¶Âä®È£ûÊú∫Ëµ∑È£ûÔºåÊääËØ•ÂÄº‰∏é1500Áõ∏ÂØπÂ∫î
  56:./Tools/Src/Pid.c **** //‰ªéËÄåÂÆûÁé∞‰∏Ä‰∏™Êò†Â∞ÑÂÖ≥Á≥ª
  57:./Tools/Src/Pid.c **** 
  58:./Tools/Src/Pid.c **** 
  59:./Tools/Src/Pid.c **** //PB6:‰∏ÄÂè∑ÁîµÊú∫  PB7:‰∫åÂè∑ÁîµÊú∫   PB8:‰∏âÂè∑ÁîµÊú∫   PB9:ÂõõÂè∑ÁîµÊú∫
  60:./Tools/Src/Pid.c **** 
  61:./Tools/Src/Pid.c **** //
  62:./Tools/Src/Pid.c **** //	PB6   PB7    ‰∏Ä   ‰∫å
  63:./Tools/Src/Pid.c **** //	   \ /	       \ /	
  64:./Tools/Src/Pid.c **** //     / \         / \
  65:./Tools/Src/Pid.c **** //	PB8	  PB9    ‰∏â	  Âõõ
  66:./Tools/Src/Pid.c **** //
  67:./Tools/Src/Pid.c **** 
  68:./Tools/Src/Pid.c **** /**
  69:./Tools/Src/Pid.c ****   * @brief ËøôÊòØÂçïÁéØPIDÊéßÂà∂Âô®ÔºåÊòØ‰ΩøÁî®ÁöÑPIDÁªìÊûÑ‰ΩìÊù•ÂÆûÁé∞Ôºå
  70:./Tools/Src/Pid.c ****   *		   
  71:./Tools/Src/Pid.c ****   * @args
  72:./Tools/Src/Pid.c ****   * @returnval
  73:./Tools/Src/Pid.c ****   */
  74:./Tools/Src/Pid.c **** 
  75:./Tools/Src/Pid.c **** 
  76:./Tools/Src/Pid.c **** void PID_Controller(void)
  77:./Tools/Src/Pid.c **** {
 155              		.loc 1 77 1
 156              		.cfi_startproc
 157              		@ args = 0, pretend = 0, frame = 0
 158              		@ frame_needed = 1, uses_anonymous_args = 0
 159 0000 80B5     		push	{r7, lr}
 160              		.cfi_def_cfa_offset 8
 161              		.cfi_offset 7, -8
 162              		.cfi_offset 14, -4
 163 0002 00AF     		add	r7, sp, #0
 164              		.cfi_def_cfa_register 7
  78:./Tools/Src/Pid.c **** 	Oil_PWM = PPM_Data[3];
 165              		.loc 1 78 20
 166 0004 B24B     		ldr	r3, .L11
 167 0006 DB88     		ldrh	r3, [r3, #6]
 168 0008 1AB2     		sxth	r2, r3
 169              		.loc 1 78 10
 170 000a B24B     		ldr	r3, .L11+4
 171 000c 1A80     		strh	r2, [r3]	@ movhi
  79:./Tools/Src/Pid.c **** 	PID.Pitch_Tar = (PPM_Data[2]-1500)/33.333f;
 172              		.loc 1 79 27
 173 000e B04B     		ldr	r3, .L11
 174 0010 9B88     		ldrh	r3, [r3, #4]
 175              		.loc 1 79 30
 176 0012 A3F2DC53 		subw	r3, r3, #1500
 177              		.loc 1 79 36
 178 0016 07EE903A 		vmov	s15, r3	@ int
 179 001a B8EEE77A 		vcvt.f32.s32	s14, s15
 180 001e DFEDAE6A 		vldr.32	s13, .L11+8
 181 0022 C7EE267A 		vdiv.f32	s15, s14, s13
 182              		.loc 1 79 16
ARM GAS  /tmp/cclDNmC3.s 			page 5


 183 0026 AD4B     		ldr	r3, .L11+12
 184 0028 C3ED007A 		vstr.32	s15, [r3]
  80:./Tools/Src/Pid.c **** 	PID.Roll_Tar  = (PPM_Data[4]-1500)/33.333f;
 185              		.loc 1 80 27
 186 002c A84B     		ldr	r3, .L11
 187 002e 1B89     		ldrh	r3, [r3, #8]
 188              		.loc 1 80 30
 189 0030 A3F2DC53 		subw	r3, r3, #1500
 190              		.loc 1 80 36
 191 0034 07EE903A 		vmov	s15, r3	@ int
 192 0038 B8EEE77A 		vcvt.f32.s32	s14, s15
 193 003c DFEDA66A 		vldr.32	s13, .L11+8
 194 0040 C7EE267A 		vdiv.f32	s15, s14, s13
 195              		.loc 1 80 16
 196 0044 A54B     		ldr	r3, .L11+12
 197 0046 C3ED017A 		vstr.32	s15, [r3, #4]
  81:./Tools/Src/Pid.c **** 	
  82:./Tools/Src/Pid.c **** 	PID.Pitch_Err_Last = PID.Pitch_Err_Now;				//Êõ¥Êñ∞‰∏ä‰∏ÄÊ¨°ÁöÑËØØÂ∑Æ
 198              		.loc 1 82 26
 199 004a A44B     		ldr	r3, .L11+12
 200 004c DB68     		ldr	r3, [r3, #12]	@ float
 201              		.loc 1 82 21
 202 004e A34A     		ldr	r2, .L11+12
 203 0050 1361     		str	r3, [r2, #16]	@ float
  83:./Tools/Src/Pid.c **** 	PID.Pitch_Err_Now = angle.pitch - PID.Pitch_Tar;	//Êõ¥Êñ∞Ëøô‰∏ÄÊ¨°ÁöÑËØØÂ∑Æ
 204              		.loc 1 83 27
 205 0052 A34B     		ldr	r3, .L11+16
 206 0054 93ED007A 		vldr.32	s14, [r3]
 207              		.loc 1 83 39
 208 0058 A04B     		ldr	r3, .L11+12
 209 005a D3ED007A 		vldr.32	s15, [r3]
 210              		.loc 1 83 34
 211 005e 77EE677A 		vsub.f32	s15, s14, s15
 212              		.loc 1 83 20
 213 0062 9E4B     		ldr	r3, .L11+12
 214 0064 C3ED037A 		vstr.32	s15, [r3, #12]
  84:./Tools/Src/Pid.c **** 	PID.Pitch_Err_All += PID.Pitch_Err_Now;				//ÂØπËØØÂ∑ÆÊ±ÇÂíå
 215              		.loc 1 84 5
 216 0068 9C4B     		ldr	r3, .L11+12
 217 006a 93ED057A 		vldr.32	s14, [r3, #20]
 218              		.loc 1 84 26
 219 006e 9B4B     		ldr	r3, .L11+12
 220 0070 D3ED037A 		vldr.32	s15, [r3, #12]
 221              		.loc 1 84 20
 222 0074 77EE277A 		vadd.f32	s15, s14, s15
 223 0078 984B     		ldr	r3, .L11+12
 224 007a C3ED057A 		vstr.32	s15, [r3, #20]
  85:./Tools/Src/Pid.c **** 	Pitch_PWM = (int16_t)( Kp*PID.Pitch_Err_Now + Ki*PID.Pitch_Err_All + Kd*(PID.Pitch_Err_Now - PID.P
 225              		.loc 1 85 31
 226 007e 974B     		ldr	r3, .L11+12
 227 0080 93ED037A 		vldr.32	s14, [r3, #12]
 228              		.loc 1 85 27
 229 0084 974B     		ldr	r3, .L11+20
 230 0086 D3ED007A 		vldr.32	s15, [r3]
 231 008a 27EE277A 		vmul.f32	s14, s14, s15
 232              		.loc 1 85 54
 233 008e 934B     		ldr	r3, .L11+12
ARM GAS  /tmp/cclDNmC3.s 			page 6


 234 0090 D3ED056A 		vldr.32	s13, [r3, #20]
 235              		.loc 1 85 50
 236 0094 944B     		ldr	r3, .L11+24
 237 0096 D3ED007A 		vldr.32	s15, [r3]
 238 009a 66EEA77A 		vmul.f32	s15, s13, s15
 239              		.loc 1 85 46
 240 009e 37EE277A 		vadd.f32	s14, s14, s15
 241              		.loc 1 85 78
 242 00a2 8E4B     		ldr	r3, .L11+12
 243 00a4 D3ED036A 		vldr.32	s13, [r3, #12]
 244              		.loc 1 85 98
 245 00a8 8C4B     		ldr	r3, .L11+12
 246 00aa D3ED047A 		vldr.32	s15, [r3, #16]
 247              		.loc 1 85 93
 248 00ae 76EEE76A 		vsub.f32	s13, s13, s15
 249              		.loc 1 85 73
 250 00b2 8E4B     		ldr	r3, .L11+28
 251 00b4 D3ED007A 		vldr.32	s15, [r3]
 252 00b8 66EEA77A 		vmul.f32	s15, s13, s15
 253              		.loc 1 85 69
 254 00bc 77EE277A 		vadd.f32	s15, s14, s15
 255              		.loc 1 85 14
 256 00c0 FDEEE77A 		vcvt.s32.f32	s15, s15
 257 00c4 17EE903A 		vmov	r3, s15	@ int
 258 00c8 1AB2     		sxth	r2, r3
 259              		.loc 1 85 12
 260 00ca 894B     		ldr	r3, .L11+32
 261 00cc 1A80     		strh	r2, [r3]	@ movhi
  86:./Tools/Src/Pid.c **** 	
  87:./Tools/Src/Pid.c **** 	//‰∏Ä‰∏ãËøáÁ®ã‰∏éËÆ°ÁÆóPitchÁöÑËæìÂá∫ÂêåÁêÜ
  88:./Tools/Src/Pid.c **** 	PID.Roll_Err_Last = PID.Roll_Err_Now;
 262              		.loc 1 88 25
 263 00ce 834B     		ldr	r3, .L11+12
 264 00d0 9B69     		ldr	r3, [r3, #24]	@ float
 265              		.loc 1 88 20
 266 00d2 824A     		ldr	r2, .L11+12
 267 00d4 D361     		str	r3, [r2, #28]	@ float
  89:./Tools/Src/Pid.c **** 	PID.Roll_Err_Now = angle.roll - PID.Roll_Tar;
 268              		.loc 1 89 26
 269 00d6 824B     		ldr	r3, .L11+16
 270 00d8 93ED017A 		vldr.32	s14, [r3, #4]
 271              		.loc 1 89 37
 272 00dc 7F4B     		ldr	r3, .L11+12
 273 00de D3ED017A 		vldr.32	s15, [r3, #4]
 274              		.loc 1 89 32
 275 00e2 77EE677A 		vsub.f32	s15, s14, s15
 276              		.loc 1 89 19
 277 00e6 7D4B     		ldr	r3, .L11+12
 278 00e8 C3ED067A 		vstr.32	s15, [r3, #24]
  90:./Tools/Src/Pid.c **** 	PID.Roll_Err_All += PID.Roll_Err_Now;
 279              		.loc 1 90 5
 280 00ec 7B4B     		ldr	r3, .L11+12
 281 00ee 93ED087A 		vldr.32	s14, [r3, #32]
 282              		.loc 1 90 25
 283 00f2 7A4B     		ldr	r3, .L11+12
 284 00f4 D3ED067A 		vldr.32	s15, [r3, #24]
 285              		.loc 1 90 19
ARM GAS  /tmp/cclDNmC3.s 			page 7


 286 00f8 77EE277A 		vadd.f32	s15, s14, s15
 287 00fc 774B     		ldr	r3, .L11+12
 288 00fe C3ED087A 		vstr.32	s15, [r3, #32]
  91:./Tools/Src/Pid.c **** 	Roll_PWM = (int16_t)( Kp*PID.Roll_Err_Now + Ki*PID.Roll_Err_All + Kd*(PID.Roll_Err_Now - PID.Roll_
 289              		.loc 1 91 30
 290 0102 764B     		ldr	r3, .L11+12
 291 0104 93ED067A 		vldr.32	s14, [r3, #24]
 292              		.loc 1 91 26
 293 0108 764B     		ldr	r3, .L11+20
 294 010a D3ED007A 		vldr.32	s15, [r3]
 295 010e 27EE277A 		vmul.f32	s14, s14, s15
 296              		.loc 1 91 52
 297 0112 724B     		ldr	r3, .L11+12
 298 0114 D3ED086A 		vldr.32	s13, [r3, #32]
 299              		.loc 1 91 48
 300 0118 734B     		ldr	r3, .L11+24
 301 011a D3ED007A 		vldr.32	s15, [r3]
 302 011e 66EEA77A 		vmul.f32	s15, s13, s15
 303              		.loc 1 91 44
 304 0122 37EE277A 		vadd.f32	s14, s14, s15
 305              		.loc 1 91 75
 306 0126 6D4B     		ldr	r3, .L11+12
 307 0128 D3ED066A 		vldr.32	s13, [r3, #24]
 308              		.loc 1 91 94
 309 012c 6B4B     		ldr	r3, .L11+12
 310 012e D3ED077A 		vldr.32	s15, [r3, #28]
 311              		.loc 1 91 89
 312 0132 76EEE76A 		vsub.f32	s13, s13, s15
 313              		.loc 1 91 70
 314 0136 6D4B     		ldr	r3, .L11+28
 315 0138 D3ED007A 		vldr.32	s15, [r3]
 316 013c 66EEA77A 		vmul.f32	s15, s13, s15
 317              		.loc 1 91 66
 318 0140 77EE277A 		vadd.f32	s15, s14, s15
 319              		.loc 1 91 13
 320 0144 FDEEE77A 		vcvt.s32.f32	s15, s15
 321 0148 17EE903A 		vmov	r3, s15	@ int
 322 014c 1AB2     		sxth	r2, r3
 323              		.loc 1 91 11
 324 014e 694B     		ldr	r3, .L11+36
 325 0150 1A80     		strh	r2, [r3]	@ movhi
  92:./Tools/Src/Pid.c **** 	
  93:./Tools/Src/Pid.c **** 	
  94:./Tools/Src/Pid.c **** 	Motor1_PWM = Oil_PWM - Pitch_PWM + Roll_PWM;
 326              		.loc 1 94 23
 327 0152 604B     		ldr	r3, .L11+4
 328 0154 B3F90030 		ldrsh	r3, [r3]
 329 0158 9AB2     		uxth	r2, r3
 330 015a 654B     		ldr	r3, .L11+32
 331 015c B3F90030 		ldrsh	r3, [r3]
 332 0160 9BB2     		uxth	r3, r3
 333 0162 D31A     		subs	r3, r2, r3
 334 0164 9AB2     		uxth	r2, r3
 335              		.loc 1 94 35
 336 0166 634B     		ldr	r3, .L11+36
 337 0168 B3F90030 		ldrsh	r3, [r3]
 338 016c 9BB2     		uxth	r3, r3
ARM GAS  /tmp/cclDNmC3.s 			page 8


 339 016e 1344     		add	r3, r3, r2
 340 0170 9BB2     		uxth	r3, r3
 341 0172 1AB2     		sxth	r2, r3
 342              		.loc 1 94 13
 343 0174 604B     		ldr	r3, .L11+40
 344 0176 1A80     		strh	r2, [r3]	@ movhi
  95:./Tools/Src/Pid.c **** 	Motor2_PWM = Oil_PWM - Pitch_PWM - Roll_PWM;
 345              		.loc 1 95 23
 346 0178 564B     		ldr	r3, .L11+4
 347 017a B3F90030 		ldrsh	r3, [r3]
 348 017e 9AB2     		uxth	r2, r3
 349 0180 5B4B     		ldr	r3, .L11+32
 350 0182 B3F90030 		ldrsh	r3, [r3]
 351 0186 9BB2     		uxth	r3, r3
 352 0188 D31A     		subs	r3, r2, r3
 353 018a 9AB2     		uxth	r2, r3
 354              		.loc 1 95 35
 355 018c 594B     		ldr	r3, .L11+36
 356 018e B3F90030 		ldrsh	r3, [r3]
 357 0192 9BB2     		uxth	r3, r3
 358 0194 D31A     		subs	r3, r2, r3
 359 0196 9BB2     		uxth	r3, r3
 360 0198 1AB2     		sxth	r2, r3
 361              		.loc 1 95 13
 362 019a 584B     		ldr	r3, .L11+44
 363 019c 1A80     		strh	r2, [r3]	@ movhi
  96:./Tools/Src/Pid.c **** 	Motor3_PWM = Oil_PWM + Pitch_PWM + Roll_PWM;
 364              		.loc 1 96 23
 365 019e 4D4B     		ldr	r3, .L11+4
 366 01a0 B3F90030 		ldrsh	r3, [r3]
 367 01a4 9AB2     		uxth	r2, r3
 368 01a6 524B     		ldr	r3, .L11+32
 369 01a8 B3F90030 		ldrsh	r3, [r3]
 370 01ac 9BB2     		uxth	r3, r3
 371 01ae 1344     		add	r3, r3, r2
 372 01b0 9AB2     		uxth	r2, r3
 373              		.loc 1 96 35
 374 01b2 504B     		ldr	r3, .L11+36
 375 01b4 B3F90030 		ldrsh	r3, [r3]
 376 01b8 9BB2     		uxth	r3, r3
 377 01ba 1344     		add	r3, r3, r2
 378 01bc 9BB2     		uxth	r3, r3
 379 01be 1AB2     		sxth	r2, r3
 380              		.loc 1 96 13
 381 01c0 4F4B     		ldr	r3, .L11+48
 382 01c2 1A80     		strh	r2, [r3]	@ movhi
  97:./Tools/Src/Pid.c **** 	Motor4_PWM = Oil_PWM + Pitch_PWM - Roll_PWM;//Âè†Âä†ËæìÂá∫
 383              		.loc 1 97 23
 384 01c4 434B     		ldr	r3, .L11+4
 385 01c6 B3F90030 		ldrsh	r3, [r3]
 386 01ca 9AB2     		uxth	r2, r3
 387 01cc 484B     		ldr	r3, .L11+32
 388 01ce B3F90030 		ldrsh	r3, [r3]
 389 01d2 9BB2     		uxth	r3, r3
 390 01d4 1344     		add	r3, r3, r2
 391 01d6 9AB2     		uxth	r2, r3
 392              		.loc 1 97 35
ARM GAS  /tmp/cclDNmC3.s 			page 9


 393 01d8 464B     		ldr	r3, .L11+36
 394 01da B3F90030 		ldrsh	r3, [r3]
 395 01de 9BB2     		uxth	r3, r3
 396 01e0 D31A     		subs	r3, r2, r3
 397 01e2 9BB2     		uxth	r3, r3
 398 01e4 1AB2     		sxth	r2, r3
 399              		.loc 1 97 13
 400 01e6 474B     		ldr	r3, .L11+52
 401 01e8 1A80     		strh	r2, [r3]	@ movhi
  98:./Tools/Src/Pid.c **** 	
  99:./Tools/Src/Pid.c **** 	if(Motor1_PWM<1000)//Èò≤Ê≠¢Âá∫Áé∞ÈùûÊ≥ïËåÉÂõ¥ÂÜÖÁöÑCCRÂÄº
 402              		.loc 1 99 15
 403 01ea 434B     		ldr	r3, .L11+40
 404 01ec B3F90030 		ldrsh	r3, [r3]
 405              		.loc 1 99 4
 406 01f0 B3F57A7F 		cmp	r3, #1000
 407 01f4 03DA     		bge	.L2
 100:./Tools/Src/Pid.c **** 	{
 101:./Tools/Src/Pid.c **** 		Motor1_PWM=1000;
 408              		.loc 1 101 13
 409 01f6 404B     		ldr	r3, .L11+40
 410 01f8 4FF47A72 		mov	r2, #1000
 411 01fc 1A80     		strh	r2, [r3]	@ movhi
 412              	.L2:
 102:./Tools/Src/Pid.c **** 	}
 103:./Tools/Src/Pid.c **** 	if(Motor2_PWM<1000)
 413              		.loc 1 103 15
 414 01fe 3F4B     		ldr	r3, .L11+44
 415 0200 B3F90030 		ldrsh	r3, [r3]
 416              		.loc 1 103 4
 417 0204 B3F57A7F 		cmp	r3, #1000
 418 0208 03DA     		bge	.L3
 104:./Tools/Src/Pid.c **** 	{
 105:./Tools/Src/Pid.c **** 		Motor2_PWM=1000;
 419              		.loc 1 105 13
 420 020a 3C4B     		ldr	r3, .L11+44
 421 020c 4FF47A72 		mov	r2, #1000
 422 0210 1A80     		strh	r2, [r3]	@ movhi
 423              	.L3:
 106:./Tools/Src/Pid.c **** 	}
 107:./Tools/Src/Pid.c **** 	if(Motor3_PWM<1000)
 424              		.loc 1 107 15
 425 0212 3B4B     		ldr	r3, .L11+48
 426 0214 B3F90030 		ldrsh	r3, [r3]
 427              		.loc 1 107 4
 428 0218 B3F57A7F 		cmp	r3, #1000
 429 021c 03DA     		bge	.L4
 108:./Tools/Src/Pid.c **** 	{
 109:./Tools/Src/Pid.c **** 		Motor3_PWM=1000;
 430              		.loc 1 109 13
 431 021e 384B     		ldr	r3, .L11+48
 432 0220 4FF47A72 		mov	r2, #1000
 433 0224 1A80     		strh	r2, [r3]	@ movhi
 434              	.L4:
 110:./Tools/Src/Pid.c **** 	}
 111:./Tools/Src/Pid.c **** 	if(Motor4_PWM<1000)
 435              		.loc 1 111 15
ARM GAS  /tmp/cclDNmC3.s 			page 10


 436 0226 374B     		ldr	r3, .L11+52
 437 0228 B3F90030 		ldrsh	r3, [r3]
 438              		.loc 1 111 4
 439 022c B3F57A7F 		cmp	r3, #1000
 440 0230 03DA     		bge	.L5
 112:./Tools/Src/Pid.c **** 	{
 113:./Tools/Src/Pid.c **** 		Motor4_PWM=1000;
 441              		.loc 1 113 13
 442 0232 344B     		ldr	r3, .L11+52
 443 0234 4FF47A72 		mov	r2, #1000
 444 0238 1A80     		strh	r2, [r3]	@ movhi
 445              	.L5:
 114:./Tools/Src/Pid.c **** 	}
 115:./Tools/Src/Pid.c **** 	
 116:./Tools/Src/Pid.c **** 	if(Motor1_PWM>2000)
 446              		.loc 1 116 15
 447 023a 2F4B     		ldr	r3, .L11+40
 448 023c B3F90030 		ldrsh	r3, [r3]
 449              		.loc 1 116 4
 450 0240 B3F5FA6F 		cmp	r3, #2000
 451 0244 03DD     		ble	.L6
 117:./Tools/Src/Pid.c **** 	{
 118:./Tools/Src/Pid.c **** 		Motor1_PWM=2000;
 452              		.loc 1 118 13
 453 0246 2C4B     		ldr	r3, .L11+40
 454 0248 4FF4FA62 		mov	r2, #2000
 455 024c 1A80     		strh	r2, [r3]	@ movhi
 456              	.L6:
 119:./Tools/Src/Pid.c **** 	}
 120:./Tools/Src/Pid.c **** 	if(Motor2_PWM>2000)
 457              		.loc 1 120 15
 458 024e 2B4B     		ldr	r3, .L11+44
 459 0250 B3F90030 		ldrsh	r3, [r3]
 460              		.loc 1 120 4
 461 0254 B3F5FA6F 		cmp	r3, #2000
 462 0258 03DD     		ble	.L7
 121:./Tools/Src/Pid.c **** 	{ 
 122:./Tools/Src/Pid.c **** 		Motor2_PWM=2000;
 463              		.loc 1 122 13
 464 025a 284B     		ldr	r3, .L11+44
 465 025c 4FF4FA62 		mov	r2, #2000
 466 0260 1A80     		strh	r2, [r3]	@ movhi
 467              	.L7:
 123:./Tools/Src/Pid.c **** 	}
 124:./Tools/Src/Pid.c **** 	if(Motor3_PWM>2000)
 468              		.loc 1 124 15
 469 0262 274B     		ldr	r3, .L11+48
 470 0264 B3F90030 		ldrsh	r3, [r3]
 471              		.loc 1 124 4
 472 0268 B3F5FA6F 		cmp	r3, #2000
 473 026c 03DD     		ble	.L8
 125:./Tools/Src/Pid.c **** 	{
 126:./Tools/Src/Pid.c **** 		Motor3_PWM=2000;
 474              		.loc 1 126 13
 475 026e 244B     		ldr	r3, .L11+48
 476 0270 4FF4FA62 		mov	r2, #2000
 477 0274 1A80     		strh	r2, [r3]	@ movhi
ARM GAS  /tmp/cclDNmC3.s 			page 11


 478              	.L8:
 127:./Tools/Src/Pid.c **** 	}
 128:./Tools/Src/Pid.c **** 	if(Motor4_PWM>2000)
 479              		.loc 1 128 15
 480 0276 234B     		ldr	r3, .L11+52
 481 0278 B3F90030 		ldrsh	r3, [r3]
 482              		.loc 1 128 4
 483 027c B3F5FA6F 		cmp	r3, #2000
 484 0280 03DD     		ble	.L9
 129:./Tools/Src/Pid.c **** 	{
 130:./Tools/Src/Pid.c **** 		Motor4_PWM=2000;
 485              		.loc 1 130 13
 486 0282 204B     		ldr	r3, .L11+52
 487 0284 4FF4FA62 		mov	r2, #2000
 488 0288 1A80     		strh	r2, [r3]	@ movhi
 489              	.L9:
 131:./Tools/Src/Pid.c **** 	}
 132:./Tools/Src/Pid.c **** 	Set_Speed(MOTOR1,(uint16_t)Motor1_PWM);
 490              		.loc 1 132 2
 491 028a 1B4B     		ldr	r3, .L11+40
 492 028c B3F90030 		ldrsh	r3, [r3]
 493 0290 9BB2     		uxth	r3, r3
 494 0292 1946     		mov	r1, r3
 495 0294 0120     		movs	r0, #1
 496 0296 FFF7FEFF 		bl	Set_Speed
 133:./Tools/Src/Pid.c **** 	Set_Speed(MOTOR2,(uint16_t)Motor2_PWM);
 497              		.loc 1 133 2
 498 029a 184B     		ldr	r3, .L11+44
 499 029c B3F90030 		ldrsh	r3, [r3]
 500 02a0 9BB2     		uxth	r3, r3
 501 02a2 1946     		mov	r1, r3
 502 02a4 0220     		movs	r0, #2
 503 02a6 FFF7FEFF 		bl	Set_Speed
 134:./Tools/Src/Pid.c **** 	Set_Speed(MOTOR3,(uint16_t)Motor3_PWM);
 504              		.loc 1 134 2
 505 02aa 154B     		ldr	r3, .L11+48
 506 02ac B3F90030 		ldrsh	r3, [r3]
 507 02b0 9BB2     		uxth	r3, r3
 508 02b2 1946     		mov	r1, r3
 509 02b4 0320     		movs	r0, #3
 510 02b6 FFF7FEFF 		bl	Set_Speed
 135:./Tools/Src/Pid.c **** 	Set_Speed(MOTOR4,(uint16_t)Motor4_PWM);//ÊúÄÁªàËæìÂá∫Âà∞ÁîµÊú∫
 511              		.loc 1 135 2
 512 02ba 124B     		ldr	r3, .L11+52
 513 02bc B3F90030 		ldrsh	r3, [r3]
 514 02c0 9BB2     		uxth	r3, r3
 515 02c2 1946     		mov	r1, r3
 516 02c4 0420     		movs	r0, #4
 517 02c6 FFF7FEFF 		bl	Set_Speed
 136:./Tools/Src/Pid.c **** 	return ;
 518              		.loc 1 136 2
 519 02ca 00BF     		nop
 137:./Tools/Src/Pid.c **** }
 520              		.loc 1 137 1
 521 02cc 80BD     		pop	{r7, pc}
 522              	.L12:
 523 02ce 00BF     		.align	2
ARM GAS  /tmp/cclDNmC3.s 			page 12


 524              	.L11:
 525 02d0 00000000 		.word	PPM_Data
 526 02d4 00000000 		.word	Oil_PWM
 527 02d8 FE540542 		.word	1107645694
 528 02dc 00000000 		.word	PID
 529 02e0 00000000 		.word	angle
 530 02e4 00000000 		.word	Kp
 531 02e8 00000000 		.word	Ki
 532 02ec 00000000 		.word	Kd
 533 02f0 00000000 		.word	Pitch_PWM
 534 02f4 00000000 		.word	Roll_PWM
 535 02f8 00000000 		.word	Motor1_PWM
 536 02fc 00000000 		.word	Motor2_PWM
 537 0300 00000000 		.word	Motor3_PWM
 538 0304 00000000 		.word	Motor4_PWM
 539              		.cfi_endproc
 540              	.LFE126:
 542              		.section	.text.PID_Controller_DL,"ax",%progbits
 543              		.align	1
 544              		.global	PID_Controller_DL
 545              		.syntax unified
 546              		.thumb
 547              		.thumb_func
 549              	PID_Controller_DL:
 550              	.LFB127:
 138:./Tools/Src/Pid.c **** 
 139:./Tools/Src/Pid.c **** 
 140:./Tools/Src/Pid.c **** /**
 141:./Tools/Src/Pid.c ****   * @brief ËøôÊòØÂèåÁéØPIDÊéßÂà∂Âô®ÔºåÁî±‰∫éÂçïÁéØÊòØ‰ΩøÁî®ÁöÑPIDÁªìÊûÑ‰ΩìÊù•ÂÆûÁé∞Ôºå‰∏∫‰∫ÜÂáèÂ∞ëÊ
 142:./Tools/Src/Pid.c ****   *		 ‰ΩÜÂÜÖÁéØÁöÑÁõ∏ÂÖ≥ÂèÇÊï∞Áî±ÈùôÊÄÅÂèòÈáèÊù•Êõø‰ª£
 143:./Tools/Src/Pid.c ****   * @args
 144:./Tools/Src/Pid.c ****   * @returnval
 145:./Tools/Src/Pid.c ****   */
 146:./Tools/Src/Pid.c **** 
 147:./Tools/Src/Pid.c **** 
 148:./Tools/Src/Pid.c **** 
 149:./Tools/Src/Pid.c **** void PID_Controller_DL(void)
 150:./Tools/Src/Pid.c **** {
 551              		.loc 1 150 1
 552              		.cfi_startproc
 553              		@ args = 0, pretend = 0, frame = 16
 554              		@ frame_needed = 1, uses_anonymous_args = 0
 555 0000 80B5     		push	{r7, lr}
 556              		.cfi_def_cfa_offset 8
 557              		.cfi_offset 7, -8
 558              		.cfi_offset 14, -4
 559 0002 84B0     		sub	sp, sp, #16
 560              		.cfi_def_cfa_offset 24
 561 0004 00AF     		add	r7, sp, #0
 562              		.cfi_def_cfa_register 7
 151:./Tools/Src/Pid.c **** 	Oil_PWM = PPM_Data[3];
 563              		.loc 1 151 20
 564 0006 C34B     		ldr	r3, .L23
 565 0008 DB88     		ldrh	r3, [r3, #6]
 566 000a 1AB2     		sxth	r2, r3
 567              		.loc 1 151 10
 568 000c C24B     		ldr	r3, .L23+4
ARM GAS  /tmp/cclDNmC3.s 			page 13


 569 000e 1A80     		strh	r2, [r3]	@ movhi
 152:./Tools/Src/Pid.c **** 	PID.Pitch_Tar = (PPM_Data[2]-1500)/33.333f;
 570              		.loc 1 152 27
 571 0010 C04B     		ldr	r3, .L23
 572 0012 9B88     		ldrh	r3, [r3, #4]
 573              		.loc 1 152 30
 574 0014 A3F2DC53 		subw	r3, r3, #1500
 575              		.loc 1 152 36
 576 0018 07EE903A 		vmov	s15, r3	@ int
 577 001c B8EEE77A 		vcvt.f32.s32	s14, s15
 578 0020 DFEDBE6A 		vldr.32	s13, .L23+8
 579 0024 C7EE267A 		vdiv.f32	s15, s14, s13
 580              		.loc 1 152 16
 581 0028 BD4B     		ldr	r3, .L23+12
 582 002a C3ED007A 		vstr.32	s15, [r3]
 153:./Tools/Src/Pid.c **** 	PID.Roll_Tar  = (PPM_Data[4]-1500)/33.333f;
 583              		.loc 1 153 27
 584 002e B94B     		ldr	r3, .L23
 585 0030 1B89     		ldrh	r3, [r3, #8]
 586              		.loc 1 153 30
 587 0032 A3F2DC53 		subw	r3, r3, #1500
 588              		.loc 1 153 36
 589 0036 07EE903A 		vmov	s15, r3	@ int
 590 003a B8EEE77A 		vcvt.f32.s32	s14, s15
 591 003e DFEDB76A 		vldr.32	s13, .L23+8
 592 0042 C7EE267A 		vdiv.f32	s15, s14, s13
 593              		.loc 1 153 16
 594 0046 B64B     		ldr	r3, .L23+12
 595 0048 C3ED017A 		vstr.32	s15, [r3, #4]
 154:./Tools/Src/Pid.c **** 	
 155:./Tools/Src/Pid.c **** 	float temp;
 156:./Tools/Src/Pid.c **** 	
 157:./Tools/Src/Pid.c **** 	//PIDÁöÑÂÜÖÁéØÂèÇÊï∞,‰ΩøÁî®ÈùôÊÄÅÂèòÈáè
 158:./Tools/Src/Pid.c **** 	static float P_Err_Last=0,P_Err_Sum=0,P_Err_Last_In=0,P_Err_Sum_In=0;
 159:./Tools/Src/Pid.c **** 	float P_Err_Now;
 160:./Tools/Src/Pid.c **** 	P_Err_Now = angle.pitch - PID.Pitch_Tar;
 596              		.loc 1 160 19
 597 004c B54B     		ldr	r3, .L23+16
 598 004e 93ED007A 		vldr.32	s14, [r3]
 599              		.loc 1 160 31
 600 0052 B34B     		ldr	r3, .L23+12
 601 0054 D3ED007A 		vldr.32	s15, [r3]
 602              		.loc 1 160 12
 603 0058 77EE677A 		vsub.f32	s15, s14, s15
 604 005c C7ED037A 		vstr.32	s15, [r7, #12]
 161:./Tools/Src/Pid.c **** 	
 162:./Tools/Src/Pid.c **** 		P_Err_Sum += P_Err_Now;
 605              		.loc 1 162 13
 606 0060 B14B     		ldr	r3, .L23+20
 607 0062 93ED007A 		vldr.32	s14, [r3]
 608 0066 D7ED037A 		vldr.32	s15, [r7, #12]
 609 006a 77EE277A 		vadd.f32	s15, s14, s15
 610 006e AE4B     		ldr	r3, .L23+20
 611 0070 C3ED007A 		vstr.32	s15, [r3]
 163:./Tools/Src/Pid.c **** 	
 164:./Tools/Src/Pid.c **** 		temp = Kp_IN * P_Err_Now + Ki_IN * P_Err_Sum + Kd_IN * ( P_Err_Now - P_Err_Last );
 612              		.loc 1 164 16
ARM GAS  /tmp/cclDNmC3.s 			page 14


 613 0074 AD4B     		ldr	r3, .L23+24
 614 0076 93ED007A 		vldr.32	s14, [r3]
 615 007a D7ED037A 		vldr.32	s15, [r7, #12]
 616 007e 27EE277A 		vmul.f32	s14, s14, s15
 617              		.loc 1 164 36
 618 0082 AB4B     		ldr	r3, .L23+28
 619 0084 D3ED006A 		vldr.32	s13, [r3]
 620 0088 A74B     		ldr	r3, .L23+20
 621 008a D3ED007A 		vldr.32	s15, [r3]
 622 008e 66EEA77A 		vmul.f32	s15, s13, s15
 623              		.loc 1 164 28
 624 0092 37EE277A 		vadd.f32	s14, s14, s15
 625              		.loc 1 164 70
 626 0096 A74B     		ldr	r3, .L23+32
 627 0098 D3ED007A 		vldr.32	s15, [r3]
 628 009c D7ED036A 		vldr.32	s13, [r7, #12]
 629 00a0 76EEE76A 		vsub.f32	s13, s13, s15
 630              		.loc 1 164 56
 631 00a4 A44B     		ldr	r3, .L23+36
 632 00a6 D3ED007A 		vldr.32	s15, [r3]
 633 00aa 66EEA77A 		vmul.f32	s15, s13, s15
 634              		.loc 1 164 8
 635 00ae 77EE277A 		vadd.f32	s15, s14, s15
 636 00b2 C7ED027A 		vstr.32	s15, [r7, #8]
 165:./Tools/Src/Pid.c **** 		P_Err_Last =  P_Err_Now;
 637              		.loc 1 165 14
 638 00b6 9F4A     		ldr	r2, .L23+32
 639 00b8 FB68     		ldr	r3, [r7, #12]	@ float
 640 00ba 1360     		str	r3, [r2]	@ float
 166:./Tools/Src/Pid.c **** 		P_Err_Now = Wx - temp;
 641              		.loc 1 166 18
 642 00bc 9F4B     		ldr	r3, .L23+40
 643 00be 93ED007A 		vldr.32	s14, [r3]
 644              		.loc 1 166 13
 645 00c2 D7ED027A 		vldr.32	s15, [r7, #8]
 646 00c6 77EE677A 		vsub.f32	s15, s14, s15
 647 00ca C7ED037A 		vstr.32	s15, [r7, #12]
 167:./Tools/Src/Pid.c **** 		temp = Kp_OUT * P_Err_Now + Ki_OUT * P_Err_Sum_In + Kd_OUT * ( P_Err_Now - P_Err_Last_In );
 648              		.loc 1 167 17
 649 00ce 9C4B     		ldr	r3, .L23+44
 650 00d0 93ED007A 		vldr.32	s14, [r3]
 651 00d4 D7ED037A 		vldr.32	s15, [r7, #12]
 652 00d8 27EE277A 		vmul.f32	s14, s14, s15
 653              		.loc 1 167 38
 654 00dc 994B     		ldr	r3, .L23+48
 655 00de D3ED006A 		vldr.32	s13, [r3]
 656 00e2 994B     		ldr	r3, .L23+52
 657 00e4 D3ED007A 		vldr.32	s15, [r3]
 658 00e8 66EEA77A 		vmul.f32	s15, s13, s15
 659              		.loc 1 167 29
 660 00ec 37EE277A 		vadd.f32	s14, s14, s15
 661              		.loc 1 167 76
 662 00f0 964B     		ldr	r3, .L23+56
 663 00f2 D3ED007A 		vldr.32	s15, [r3]
 664 00f6 D7ED036A 		vldr.32	s13, [r7, #12]
 665 00fa 76EEE76A 		vsub.f32	s13, s13, s15
 666              		.loc 1 167 62
ARM GAS  /tmp/cclDNmC3.s 			page 15


 667 00fe 944B     		ldr	r3, .L23+60
 668 0100 D3ED007A 		vldr.32	s15, [r3]
 669 0104 66EEA77A 		vmul.f32	s15, s13, s15
 670              		.loc 1 167 8
 671 0108 77EE277A 		vadd.f32	s15, s14, s15
 672 010c C7ED027A 		vstr.32	s15, [r7, #8]
 168:./Tools/Src/Pid.c **** 		P_Err_Last_In = P_Err_Now;
 673              		.loc 1 168 17
 674 0110 8E4A     		ldr	r2, .L23+56
 675 0112 FB68     		ldr	r3, [r7, #12]	@ float
 676 0114 1360     		str	r3, [r2]	@ float
 169:./Tools/Src/Pid.c **** 		Pitch_PWM = -(int16_t)temp;
 677              		.loc 1 169 16
 678 0116 D7ED027A 		vldr.32	s15, [r7, #8]
 679 011a FDEEE77A 		vcvt.s32.f32	s15, s15
 680 011e 17EE903A 		vmov	r3, s15	@ int
 681 0122 1BB2     		sxth	r3, r3
 682 0124 9BB2     		uxth	r3, r3
 683              		.loc 1 169 13
 684 0126 5B42     		rsbs	r3, r3, #0
 685 0128 9BB2     		uxth	r3, r3
 686 012a 1AB2     		sxth	r2, r3
 687 012c 894B     		ldr	r3, .L23+64
 688 012e 1A80     		strh	r2, [r3]	@ movhi
 170:./Tools/Src/Pid.c **** 	
 171:./Tools/Src/Pid.c **** 	//Âêå‰∏ä
 172:./Tools/Src/Pid.c **** 	static float R_Err_Last=0,R_Err_Sum=0,R_Err_Last_In=0,R_Err_Sum_In=0;
 173:./Tools/Src/Pid.c **** 	float R_Err_Now;
 174:./Tools/Src/Pid.c **** 	R_Err_Now = angle.roll - PID.Roll_Tar;
 689              		.loc 1 174 19
 690 0130 7C4B     		ldr	r3, .L23+16
 691 0132 93ED017A 		vldr.32	s14, [r3, #4]
 692              		.loc 1 174 30
 693 0136 7A4B     		ldr	r3, .L23+12
 694 0138 D3ED017A 		vldr.32	s15, [r3, #4]
 695              		.loc 1 174 12
 696 013c 77EE677A 		vsub.f32	s15, s14, s15
 697 0140 C7ED017A 		vstr.32	s15, [r7, #4]
 175:./Tools/Src/Pid.c **** 	
 176:./Tools/Src/Pid.c **** 		R_Err_Sum += R_Err_Now;
 698              		.loc 1 176 13
 699 0144 844B     		ldr	r3, .L23+68
 700 0146 93ED007A 		vldr.32	s14, [r3]
 701 014a D7ED017A 		vldr.32	s15, [r7, #4]
 702 014e 77EE277A 		vadd.f32	s15, s14, s15
 703 0152 814B     		ldr	r3, .L23+68
 704 0154 C3ED007A 		vstr.32	s15, [r3]
 177:./Tools/Src/Pid.c **** 	
 178:./Tools/Src/Pid.c **** 		temp = Kp_IN * R_Err_Now + Ki_IN * R_Err_Sum + Kd_IN * ( R_Err_Now - R_Err_Last );
 705              		.loc 1 178 16
 706 0158 744B     		ldr	r3, .L23+24
 707 015a 93ED007A 		vldr.32	s14, [r3]
 708 015e D7ED017A 		vldr.32	s15, [r7, #4]
 709 0162 27EE277A 		vmul.f32	s14, s14, s15
 710              		.loc 1 178 36
 711 0166 724B     		ldr	r3, .L23+28
 712 0168 D3ED006A 		vldr.32	s13, [r3]
ARM GAS  /tmp/cclDNmC3.s 			page 16


 713 016c 7A4B     		ldr	r3, .L23+68
 714 016e D3ED007A 		vldr.32	s15, [r3]
 715 0172 66EEA77A 		vmul.f32	s15, s13, s15
 716              		.loc 1 178 28
 717 0176 37EE277A 		vadd.f32	s14, s14, s15
 718              		.loc 1 178 70
 719 017a 784B     		ldr	r3, .L23+72
 720 017c D3ED007A 		vldr.32	s15, [r3]
 721 0180 D7ED016A 		vldr.32	s13, [r7, #4]
 722 0184 76EEE76A 		vsub.f32	s13, s13, s15
 723              		.loc 1 178 56
 724 0188 6B4B     		ldr	r3, .L23+36
 725 018a D3ED007A 		vldr.32	s15, [r3]
 726 018e 66EEA77A 		vmul.f32	s15, s13, s15
 727              		.loc 1 178 8
 728 0192 77EE277A 		vadd.f32	s15, s14, s15
 729 0196 C7ED027A 		vstr.32	s15, [r7, #8]
 179:./Tools/Src/Pid.c **** 		R_Err_Last =  R_Err_Now;
 730              		.loc 1 179 14
 731 019a 704A     		ldr	r2, .L23+72
 732 019c 7B68     		ldr	r3, [r7, #4]	@ float
 733 019e 1360     		str	r3, [r2]	@ float
 180:./Tools/Src/Pid.c **** 		R_Err_Now = Wy - temp;
 734              		.loc 1 180 18
 735 01a0 6F4B     		ldr	r3, .L23+76
 736 01a2 93ED007A 		vldr.32	s14, [r3]
 737              		.loc 1 180 13
 738 01a6 D7ED027A 		vldr.32	s15, [r7, #8]
 739 01aa 77EE677A 		vsub.f32	s15, s14, s15
 740 01ae C7ED017A 		vstr.32	s15, [r7, #4]
 181:./Tools/Src/Pid.c **** 		temp = Kp_OUT * R_Err_Now + Ki_OUT * R_Err_Sum_In + Kd_OUT * ( R_Err_Now - R_Err_Last_In );
 741              		.loc 1 181 17
 742 01b2 634B     		ldr	r3, .L23+44
 743 01b4 93ED007A 		vldr.32	s14, [r3]
 744 01b8 D7ED017A 		vldr.32	s15, [r7, #4]
 745 01bc 27EE277A 		vmul.f32	s14, s14, s15
 746              		.loc 1 181 38
 747 01c0 604B     		ldr	r3, .L23+48
 748 01c2 D3ED006A 		vldr.32	s13, [r3]
 749 01c6 674B     		ldr	r3, .L23+80
 750 01c8 D3ED007A 		vldr.32	s15, [r3]
 751 01cc 66EEA77A 		vmul.f32	s15, s13, s15
 752              		.loc 1 181 29
 753 01d0 37EE277A 		vadd.f32	s14, s14, s15
 754              		.loc 1 181 76
 755 01d4 644B     		ldr	r3, .L23+84
 756 01d6 D3ED007A 		vldr.32	s15, [r3]
 757 01da D7ED016A 		vldr.32	s13, [r7, #4]
 758 01de 76EEE76A 		vsub.f32	s13, s13, s15
 759              		.loc 1 181 62
 760 01e2 5B4B     		ldr	r3, .L23+60
 761 01e4 D3ED007A 		vldr.32	s15, [r3]
 762 01e8 66EEA77A 		vmul.f32	s15, s13, s15
 763              		.loc 1 181 8
 764 01ec 77EE277A 		vadd.f32	s15, s14, s15
 765 01f0 C7ED027A 		vstr.32	s15, [r7, #8]
 182:./Tools/Src/Pid.c **** 		R_Err_Last_In = R_Err_Now;
ARM GAS  /tmp/cclDNmC3.s 			page 17


 766              		.loc 1 182 17
 767 01f4 5C4A     		ldr	r2, .L23+84
 768 01f6 7B68     		ldr	r3, [r7, #4]	@ float
 769 01f8 1360     		str	r3, [r2]	@ float
 183:./Tools/Src/Pid.c **** 		Roll_PWM = -(int16_t)temp;
 770              		.loc 1 183 15
 771 01fa D7ED027A 		vldr.32	s15, [r7, #8]
 772 01fe FDEEE77A 		vcvt.s32.f32	s15, s15
 773 0202 17EE903A 		vmov	r3, s15	@ int
 774 0206 1BB2     		sxth	r3, r3
 775 0208 9BB2     		uxth	r3, r3
 776              		.loc 1 183 12
 777 020a 5B42     		rsbs	r3, r3, #0
 778 020c 9BB2     		uxth	r3, r3
 779 020e 1AB2     		sxth	r2, r3
 780 0210 564B     		ldr	r3, .L23+88
 781 0212 1A80     		strh	r2, [r3]	@ movhi
 184:./Tools/Src/Pid.c **** 	
 185:./Tools/Src/Pid.c **** 	
 186:./Tools/Src/Pid.c **** 	
 187:./Tools/Src/Pid.c **** 	//Âêå‰∏ä
 188:./Tools/Src/Pid.c **** 	static float Y_Err_Last=0,Y_Err_Sum=0,Y_Err_Last_In=0,Y_Err_Sum_In=0;
 189:./Tools/Src/Pid.c **** 	float Y_Err_Now;
 190:./Tools/Src/Pid.c **** 	
 191:./Tools/Src/Pid.c **** 	Y_Err_Now = angle.yaw - 0.00f;
 782              		.loc 1 191 12
 783 0214 434B     		ldr	r3, .L23+16
 784 0216 9B68     		ldr	r3, [r3, #8]	@ float
 785 0218 3B60     		str	r3, [r7]	@ float
 192:./Tools/Src/Pid.c **** 	Y_Err_Sum += Y_Err_Now;
 786              		.loc 1 192 12
 787 021a 554B     		ldr	r3, .L23+92
 788 021c 93ED007A 		vldr.32	s14, [r3]
 789 0220 D7ED007A 		vldr.32	s15, [r7]
 790 0224 77EE277A 		vadd.f32	s15, s14, s15
 791 0228 514B     		ldr	r3, .L23+92
 792 022a C3ED007A 		vstr.32	s15, [r3]
 193:./Tools/Src/Pid.c **** 	
 194:./Tools/Src/Pid.c **** 	temp = Kp_IN * Y_Err_Now + Ki_IN * Y_Err_Sum + Kd_IN * ( Y_Err_Now - Y_Err_Last );
 793              		.loc 1 194 15
 794 022e 3F4B     		ldr	r3, .L23+24
 795 0230 93ED007A 		vldr.32	s14, [r3]
 796 0234 D7ED007A 		vldr.32	s15, [r7]
 797 0238 27EE277A 		vmul.f32	s14, s14, s15
 798              		.loc 1 194 35
 799 023c 3C4B     		ldr	r3, .L23+28
 800 023e D3ED006A 		vldr.32	s13, [r3]
 801 0242 4B4B     		ldr	r3, .L23+92
 802 0244 D3ED007A 		vldr.32	s15, [r3]
 803 0248 66EEA77A 		vmul.f32	s15, s13, s15
 804              		.loc 1 194 27
 805 024c 37EE277A 		vadd.f32	s14, s14, s15
 806              		.loc 1 194 69
 807 0250 484B     		ldr	r3, .L23+96
 808 0252 D3ED007A 		vldr.32	s15, [r3]
 809 0256 D7ED006A 		vldr.32	s13, [r7]
 810 025a 76EEE76A 		vsub.f32	s13, s13, s15
ARM GAS  /tmp/cclDNmC3.s 			page 18


 811              		.loc 1 194 55
 812 025e 364B     		ldr	r3, .L23+36
 813 0260 D3ED007A 		vldr.32	s15, [r3]
 814 0264 66EEA77A 		vmul.f32	s15, s13, s15
 815              		.loc 1 194 7
 816 0268 77EE277A 		vadd.f32	s15, s14, s15
 817 026c C7ED027A 		vstr.32	s15, [r7, #8]
 195:./Tools/Src/Pid.c **** 	Y_Err_Last_In = Y_Err_Now;
 818              		.loc 1 195 16
 819 0270 414A     		ldr	r2, .L23+100
 820 0272 3B68     		ldr	r3, [r7]	@ float
 821 0274 1360     		str	r3, [r2]	@ float
 196:./Tools/Src/Pid.c **** 	Yaw_PWM = -(int16_t)(0.05f *temp);
 822              		.loc 1 196 29
 823 0276 D7ED027A 		vldr.32	s15, [r7, #8]
 824 027a 9FED407A 		vldr.32	s14, .L23+104
 825 027e 67EE877A 		vmul.f32	s15, s15, s14
 826              		.loc 1 196 13
 827 0282 FDEEE77A 		vcvt.s32.f32	s15, s15
 828 0286 17EE903A 		vmov	r3, s15	@ int
 829 028a 1BB2     		sxth	r3, r3
 830 028c 9BB2     		uxth	r3, r3
 831              		.loc 1 196 10
 832 028e 5B42     		rsbs	r3, r3, #0
 833 0290 9BB2     		uxth	r3, r3
 834 0292 1AB2     		sxth	r2, r3
 835 0294 3A4B     		ldr	r3, .L23+108
 836 0296 1A80     		strh	r2, [r3]	@ movhi
 197:./Tools/Src/Pid.c **** 	
 198:./Tools/Src/Pid.c **** 	Motor1_PWM = Oil_PWM + Roll_PWM - Pitch_PWM + Yaw_PWM;
 837              		.loc 1 198 23
 838 0298 1F4B     		ldr	r3, .L23+4
 839 029a B3F90030 		ldrsh	r3, [r3]
 840 029e 9AB2     		uxth	r2, r3
 841 02a0 324B     		ldr	r3, .L23+88
 842 02a2 B3F90030 		ldrsh	r3, [r3]
 843 02a6 9BB2     		uxth	r3, r3
 844 02a8 1344     		add	r3, r3, r2
 845 02aa 9AB2     		uxth	r2, r3
 846              		.loc 1 198 34
 847 02ac 294B     		ldr	r3, .L23+64
 848 02ae B3F90030 		ldrsh	r3, [r3]
 849 02b2 9BB2     		uxth	r3, r3
 850 02b4 D31A     		subs	r3, r2, r3
 851 02b6 9AB2     		uxth	r2, r3
 852              		.loc 1 198 46
 853 02b8 314B     		ldr	r3, .L23+108
 854 02ba B3F90030 		ldrsh	r3, [r3]
 855 02be 9BB2     		uxth	r3, r3
 856 02c0 1344     		add	r3, r3, r2
 857 02c2 9BB2     		uxth	r3, r3
 858 02c4 1AB2     		sxth	r2, r3
 859              		.loc 1 198 13
 860 02c6 2F4B     		ldr	r3, .L23+112
 861 02c8 1A80     		strh	r2, [r3]	@ movhi
 199:./Tools/Src/Pid.c **** 	Motor2_PWM = Oil_PWM - Roll_PWM - Pitch_PWM - Yaw_PWM;
 862              		.loc 1 199 23
ARM GAS  /tmp/cclDNmC3.s 			page 19


 863 02ca 134B     		ldr	r3, .L23+4
 864 02cc B3F90030 		ldrsh	r3, [r3]
 865 02d0 9AB2     		uxth	r2, r3
 866 02d2 264B     		ldr	r3, .L23+88
 867 02d4 B3F90030 		ldrsh	r3, [r3]
 868 02d8 9BB2     		uxth	r3, r3
 869 02da D31A     		subs	r3, r2, r3
 870 02dc 9AB2     		uxth	r2, r3
 871              		.loc 1 199 34
 872 02de 1D4B     		ldr	r3, .L23+64
 873 02e0 B3F90030 		ldrsh	r3, [r3]
 874 02e4 9BB2     		uxth	r3, r3
 875 02e6 D31A     		subs	r3, r2, r3
 876 02e8 9AB2     		uxth	r2, r3
 877              		.loc 1 199 46
 878 02ea 254B     		ldr	r3, .L23+108
 879 02ec B3F90030 		ldrsh	r3, [r3]
 880 02f0 9BB2     		uxth	r3, r3
 881 02f2 D31A     		subs	r3, r2, r3
 882 02f4 9BB2     		uxth	r3, r3
 883 02f6 1AB2     		sxth	r2, r3
 884              		.loc 1 199 13
 885 02f8 234B     		ldr	r3, .L23+116
 886 02fa 1A80     		strh	r2, [r3]	@ movhi
 200:./Tools/Src/Pid.c **** 	Motor3_PWM = Oil_PWM + Roll_PWM + Pitch_PWM - Yaw_PWM;
 887              		.loc 1 200 23
 888 02fc 064B     		ldr	r3, .L23+4
 889 02fe B3F90030 		ldrsh	r3, [r3]
 890 0302 9AB2     		uxth	r2, r3
 891 0304 194B     		ldr	r3, .L23+88
 892 0306 B3F90030 		ldrsh	r3, [r3]
 893 030a 9BB2     		uxth	r3, r3
 894 030c 1344     		add	r3, r3, r2
 895 030e 9AB2     		uxth	r2, r3
 896 0310 3CE0     		b	.L24
 897              	.L25:
 898 0312 00BF     		.align	2
 899              	.L23:
 900 0314 00000000 		.word	PPM_Data
 901 0318 00000000 		.word	Oil_PWM
 902 031c FE540542 		.word	1107645694
 903 0320 00000000 		.word	PID
 904 0324 00000000 		.word	angle
 905 0328 00000000 		.word	P_Err_Sum.11
 906 032c 00000000 		.word	Kp_IN
 907 0330 00000000 		.word	Ki_IN
 908 0334 00000000 		.word	P_Err_Last.10
 909 0338 00000000 		.word	Kd_IN
 910 033c 00000000 		.word	Wx
 911 0340 00000000 		.word	Kp_OUT
 912 0344 00000000 		.word	Ki_OUT
 913 0348 00000000 		.word	P_Err_Sum_In.9
 914 034c 00000000 		.word	P_Err_Last_In.8
 915 0350 00000000 		.word	Kd_OUT
 916 0354 00000000 		.word	Pitch_PWM
 917 0358 00000000 		.word	R_Err_Sum.7
 918 035c 00000000 		.word	R_Err_Last.6
ARM GAS  /tmp/cclDNmC3.s 			page 20


 919 0360 00000000 		.word	Wy
 920 0364 00000000 		.word	R_Err_Sum_In.5
 921 0368 00000000 		.word	R_Err_Last_In.4
 922 036c 00000000 		.word	Roll_PWM
 923 0370 00000000 		.word	Y_Err_Sum.3
 924 0374 00000000 		.word	Y_Err_Last.2
 925 0378 00000000 		.word	Y_Err_Last_In.1
 926 037c CDCC4C3D 		.word	1028443341
 927 0380 00000000 		.word	Yaw_PWM
 928 0384 00000000 		.word	Motor1_PWM
 929 0388 00000000 		.word	Motor2_PWM
 930              	.L24:
 931              		.loc 1 200 34
 932 038c 4D4B     		ldr	r3, .L26
 933 038e B3F90030 		ldrsh	r3, [r3]
 934 0392 9BB2     		uxth	r3, r3
 935 0394 1344     		add	r3, r3, r2
 936 0396 9AB2     		uxth	r2, r3
 937              		.loc 1 200 46
 938 0398 4B4B     		ldr	r3, .L26+4
 939 039a B3F90030 		ldrsh	r3, [r3]
 940 039e 9BB2     		uxth	r3, r3
 941 03a0 D31A     		subs	r3, r2, r3
 942 03a2 9BB2     		uxth	r3, r3
 943 03a4 1AB2     		sxth	r2, r3
 944              		.loc 1 200 13
 945 03a6 494B     		ldr	r3, .L26+8
 946 03a8 1A80     		strh	r2, [r3]	@ movhi
 201:./Tools/Src/Pid.c **** 	Motor4_PWM = Oil_PWM - Roll_PWM + Pitch_PWM + Yaw_PWM;
 947              		.loc 1 201 23
 948 03aa 494B     		ldr	r3, .L26+12
 949 03ac B3F90030 		ldrsh	r3, [r3]
 950 03b0 9AB2     		uxth	r2, r3
 951 03b2 484B     		ldr	r3, .L26+16
 952 03b4 B3F90030 		ldrsh	r3, [r3]
 953 03b8 9BB2     		uxth	r3, r3
 954 03ba D31A     		subs	r3, r2, r3
 955 03bc 9AB2     		uxth	r2, r3
 956              		.loc 1 201 34
 957 03be 414B     		ldr	r3, .L26
 958 03c0 B3F90030 		ldrsh	r3, [r3]
 959 03c4 9BB2     		uxth	r3, r3
 960 03c6 1344     		add	r3, r3, r2
 961 03c8 9AB2     		uxth	r2, r3
 962              		.loc 1 201 46
 963 03ca 3F4B     		ldr	r3, .L26+4
 964 03cc B3F90030 		ldrsh	r3, [r3]
 965 03d0 9BB2     		uxth	r3, r3
 966 03d2 1344     		add	r3, r3, r2
 967 03d4 9BB2     		uxth	r3, r3
 968 03d6 1AB2     		sxth	r2, r3
 969              		.loc 1 201 13
 970 03d8 3F4B     		ldr	r3, .L26+20
 971 03da 1A80     		strh	r2, [r3]	@ movhi
 202:./Tools/Src/Pid.c **** 	
 203:./Tools/Src/Pid.c **** 	
 204:./Tools/Src/Pid.c **** 
ARM GAS  /tmp/cclDNmC3.s 			page 21


 205:./Tools/Src/Pid.c **** 	if(Motor1_PWM<1000)//Èò≤Ê≠¢Âá∫Áé∞ÈùûÊ≥ïËåÉÂõ¥ÂÜÖÁöÑCCRÂÄº
 972              		.loc 1 205 15
 973 03dc 3F4B     		ldr	r3, .L26+24
 974 03de B3F90030 		ldrsh	r3, [r3]
 975              		.loc 1 205 4
 976 03e2 B3F57A7F 		cmp	r3, #1000
 977 03e6 03DA     		bge	.L14
 206:./Tools/Src/Pid.c **** 	{
 207:./Tools/Src/Pid.c **** 		Motor1_PWM=1000;
 978              		.loc 1 207 13
 979 03e8 3C4B     		ldr	r3, .L26+24
 980 03ea 4FF47A72 		mov	r2, #1000
 981 03ee 1A80     		strh	r2, [r3]	@ movhi
 982              	.L14:
 208:./Tools/Src/Pid.c **** 	}
 209:./Tools/Src/Pid.c **** 	if(Motor2_PWM<1000)
 983              		.loc 1 209 15
 984 03f0 3B4B     		ldr	r3, .L26+28
 985 03f2 B3F90030 		ldrsh	r3, [r3]
 986              		.loc 1 209 4
 987 03f6 B3F57A7F 		cmp	r3, #1000
 988 03fa 03DA     		bge	.L15
 210:./Tools/Src/Pid.c **** 	{
 211:./Tools/Src/Pid.c **** 		Motor2_PWM=1000;
 989              		.loc 1 211 13
 990 03fc 384B     		ldr	r3, .L26+28
 991 03fe 4FF47A72 		mov	r2, #1000
 992 0402 1A80     		strh	r2, [r3]	@ movhi
 993              	.L15:
 212:./Tools/Src/Pid.c **** 	}
 213:./Tools/Src/Pid.c **** 	if(Motor3_PWM<1000)
 994              		.loc 1 213 15
 995 0404 314B     		ldr	r3, .L26+8
 996 0406 B3F90030 		ldrsh	r3, [r3]
 997              		.loc 1 213 4
 998 040a B3F57A7F 		cmp	r3, #1000
 999 040e 03DA     		bge	.L16
 214:./Tools/Src/Pid.c **** 	{
 215:./Tools/Src/Pid.c **** 		Motor3_PWM=1000;
 1000              		.loc 1 215 13
 1001 0410 2E4B     		ldr	r3, .L26+8
 1002 0412 4FF47A72 		mov	r2, #1000
 1003 0416 1A80     		strh	r2, [r3]	@ movhi
 1004              	.L16:
 216:./Tools/Src/Pid.c **** 	}
 217:./Tools/Src/Pid.c **** 	if(Motor4_PWM<1000)
 1005              		.loc 1 217 15
 1006 0418 2F4B     		ldr	r3, .L26+20
 1007 041a B3F90030 		ldrsh	r3, [r3]
 1008              		.loc 1 217 4
 1009 041e B3F57A7F 		cmp	r3, #1000
 1010 0422 03DA     		bge	.L17
 218:./Tools/Src/Pid.c **** 	{
 219:./Tools/Src/Pid.c **** 		Motor4_PWM=1000;
 1011              		.loc 1 219 13
 1012 0424 2C4B     		ldr	r3, .L26+20
 1013 0426 4FF47A72 		mov	r2, #1000
ARM GAS  /tmp/cclDNmC3.s 			page 22


 1014 042a 1A80     		strh	r2, [r3]	@ movhi
 1015              	.L17:
 220:./Tools/Src/Pid.c **** 	}
 221:./Tools/Src/Pid.c **** 	
 222:./Tools/Src/Pid.c **** 	if(Motor1_PWM>2000)
 1016              		.loc 1 222 15
 1017 042c 2B4B     		ldr	r3, .L26+24
 1018 042e B3F90030 		ldrsh	r3, [r3]
 1019              		.loc 1 222 4
 1020 0432 B3F5FA6F 		cmp	r3, #2000
 1021 0436 03DD     		ble	.L18
 223:./Tools/Src/Pid.c **** 	{
 224:./Tools/Src/Pid.c **** 		Motor1_PWM=2000;
 1022              		.loc 1 224 13
 1023 0438 284B     		ldr	r3, .L26+24
 1024 043a 4FF4FA62 		mov	r2, #2000
 1025 043e 1A80     		strh	r2, [r3]	@ movhi
 1026              	.L18:
 225:./Tools/Src/Pid.c **** 	}
 226:./Tools/Src/Pid.c **** 	if(Motor2_PWM>2000)
 1027              		.loc 1 226 15
 1028 0440 274B     		ldr	r3, .L26+28
 1029 0442 B3F90030 		ldrsh	r3, [r3]
 1030              		.loc 1 226 4
 1031 0446 B3F5FA6F 		cmp	r3, #2000
 1032 044a 03DD     		ble	.L19
 227:./Tools/Src/Pid.c **** 	{ 
 228:./Tools/Src/Pid.c **** 		Motor2_PWM=2000;
 1033              		.loc 1 228 13
 1034 044c 244B     		ldr	r3, .L26+28
 1035 044e 4FF4FA62 		mov	r2, #2000
 1036 0452 1A80     		strh	r2, [r3]	@ movhi
 1037              	.L19:
 229:./Tools/Src/Pid.c **** 	}
 230:./Tools/Src/Pid.c **** 	if(Motor3_PWM>2000)
 1038              		.loc 1 230 15
 1039 0454 1D4B     		ldr	r3, .L26+8
 1040 0456 B3F90030 		ldrsh	r3, [r3]
 1041              		.loc 1 230 4
 1042 045a B3F5FA6F 		cmp	r3, #2000
 1043 045e 03DD     		ble	.L20
 231:./Tools/Src/Pid.c **** 	{
 232:./Tools/Src/Pid.c **** 		Motor3_PWM=2000;
 1044              		.loc 1 232 13
 1045 0460 1A4B     		ldr	r3, .L26+8
 1046 0462 4FF4FA62 		mov	r2, #2000
 1047 0466 1A80     		strh	r2, [r3]	@ movhi
 1048              	.L20:
 233:./Tools/Src/Pid.c **** 	}
 234:./Tools/Src/Pid.c **** 	if(Motor4_PWM>2000)
 1049              		.loc 1 234 15
 1050 0468 1B4B     		ldr	r3, .L26+20
 1051 046a B3F90030 		ldrsh	r3, [r3]
 1052              		.loc 1 234 4
 1053 046e B3F5FA6F 		cmp	r3, #2000
 1054 0472 03DD     		ble	.L21
 235:./Tools/Src/Pid.c **** 	{
ARM GAS  /tmp/cclDNmC3.s 			page 23


 236:./Tools/Src/Pid.c **** 		Motor4_PWM=2000;
 1055              		.loc 1 236 13
 1056 0474 184B     		ldr	r3, .L26+20
 1057 0476 4FF4FA62 		mov	r2, #2000
 1058 047a 1A80     		strh	r2, [r3]	@ movhi
 1059              	.L21:
 237:./Tools/Src/Pid.c **** 	}
 238:./Tools/Src/Pid.c **** 	Set_Speed(MOTOR1,(uint16_t)Motor1_PWM);//Ë∞ÉÊï¥ÁîµÊú∫ËΩ¨ÈÄü
 1060              		.loc 1 238 2
 1061 047c 174B     		ldr	r3, .L26+24
 1062 047e B3F90030 		ldrsh	r3, [r3]
 1063 0482 9BB2     		uxth	r3, r3
 1064 0484 1946     		mov	r1, r3
 1065 0486 0120     		movs	r0, #1
 1066 0488 FFF7FEFF 		bl	Set_Speed
 239:./Tools/Src/Pid.c **** 	Set_Speed(MOTOR2,(uint16_t)Motor2_PWM);
 1067              		.loc 1 239 2
 1068 048c 144B     		ldr	r3, .L26+28
 1069 048e B3F90030 		ldrsh	r3, [r3]
 1070 0492 9BB2     		uxth	r3, r3
 1071 0494 1946     		mov	r1, r3
 1072 0496 0220     		movs	r0, #2
 1073 0498 FFF7FEFF 		bl	Set_Speed
 240:./Tools/Src/Pid.c **** 	Set_Speed(MOTOR3,(uint16_t)Motor3_PWM);
 1074              		.loc 1 240 2
 1075 049c 0B4B     		ldr	r3, .L26+8
 1076 049e B3F90030 		ldrsh	r3, [r3]
 1077 04a2 9BB2     		uxth	r3, r3
 1078 04a4 1946     		mov	r1, r3
 1079 04a6 0320     		movs	r0, #3
 1080 04a8 FFF7FEFF 		bl	Set_Speed
 241:./Tools/Src/Pid.c **** 	Set_Speed(MOTOR4,(uint16_t)Motor4_PWM);
 1081              		.loc 1 241 2
 1082 04ac 0A4B     		ldr	r3, .L26+20
 1083 04ae B3F90030 		ldrsh	r3, [r3]
 1084 04b2 9BB2     		uxth	r3, r3
 1085 04b4 1946     		mov	r1, r3
 1086 04b6 0420     		movs	r0, #4
 1087 04b8 FFF7FEFF 		bl	Set_Speed
 242:./Tools/Src/Pid.c **** 	return ;
 1088              		.loc 1 242 2
 1089 04bc 00BF     		nop
 243:./Tools/Src/Pid.c **** }
 1090              		.loc 1 243 1
 1091 04be 1037     		adds	r7, r7, #16
 1092              		.cfi_def_cfa_offset 8
 1093 04c0 BD46     		mov	sp, r7
 1094              		.cfi_def_cfa_register 13
 1095              		@ sp needed
 1096 04c2 80BD     		pop	{r7, pc}
 1097              	.L27:
 1098              		.align	2
 1099              	.L26:
 1100 04c4 00000000 		.word	Pitch_PWM
 1101 04c8 00000000 		.word	Yaw_PWM
 1102 04cc 00000000 		.word	Motor3_PWM
 1103 04d0 00000000 		.word	Oil_PWM
ARM GAS  /tmp/cclDNmC3.s 			page 24


 1104 04d4 00000000 		.word	Roll_PWM
 1105 04d8 00000000 		.word	Motor4_PWM
 1106 04dc 00000000 		.word	Motor1_PWM
 1107 04e0 00000000 		.word	Motor2_PWM
 1108              		.cfi_endproc
 1109              	.LFE127:
 1111              		.section	.bss.P_Err_Sum.11,"aw",%nobits
 1112              		.align	2
 1115              	P_Err_Sum.11:
 1116 0000 00000000 		.space	4
 1117              		.section	.bss.P_Err_Last.10,"aw",%nobits
 1118              		.align	2
 1121              	P_Err_Last.10:
 1122 0000 00000000 		.space	4
 1123              		.section	.bss.P_Err_Sum_In.9,"aw",%nobits
 1124              		.align	2
 1127              	P_Err_Sum_In.9:
 1128 0000 00000000 		.space	4
 1129              		.section	.bss.P_Err_Last_In.8,"aw",%nobits
 1130              		.align	2
 1133              	P_Err_Last_In.8:
 1134 0000 00000000 		.space	4
 1135              		.section	.bss.R_Err_Sum.7,"aw",%nobits
 1136              		.align	2
 1139              	R_Err_Sum.7:
 1140 0000 00000000 		.space	4
 1141              		.section	.bss.R_Err_Last.6,"aw",%nobits
 1142              		.align	2
 1145              	R_Err_Last.6:
 1146 0000 00000000 		.space	4
 1147              		.section	.bss.R_Err_Sum_In.5,"aw",%nobits
 1148              		.align	2
 1151              	R_Err_Sum_In.5:
 1152 0000 00000000 		.space	4
 1153              		.section	.bss.R_Err_Last_In.4,"aw",%nobits
 1154              		.align	2
 1157              	R_Err_Last_In.4:
 1158 0000 00000000 		.space	4
 1159              		.section	.bss.Y_Err_Sum.3,"aw",%nobits
 1160              		.align	2
 1163              	Y_Err_Sum.3:
 1164 0000 00000000 		.space	4
 1165              		.section	.bss.Y_Err_Last.2,"aw",%nobits
 1166              		.align	2
 1169              	Y_Err_Last.2:
 1170 0000 00000000 		.space	4
 1171              		.section	.bss.Y_Err_Last_In.1,"aw",%nobits
 1172              		.align	2
 1175              	Y_Err_Last_In.1:
 1176 0000 00000000 		.space	4
 1177              		.section	.bss.Y_Err_Sum_In.0,"aw",%nobits
 1178              		.align	2
 1181              	Y_Err_Sum_In.0:
 1182 0000 00000000 		.space	4
 1183              		.text
 1184              	.Letext0:
 1185              		.file 2 "/usr/lib/gcc/arm-none-eabi/12.2.1/include/stdint.h"
ARM GAS  /tmp/cclDNmC3.s 			page 25


 1186              		.file 3 "./Tools/Inc/Pid.h"
 1187              		.file 4 "./Hardware/Inc/IMU.h"
 1188              		.file 5 "./Hardware/Inc/Receiver.h"
 1189              		.file 6 "./Hardware/Inc/Motor.h"
ARM GAS  /tmp/cclDNmC3.s 			page 26

