ARM GAS  /tmp/ccH5Abi0.s 			page 1


   1              		.cpu cortex-m4
   2              		.arch armv7e-m
   3              		.fpu fpv4-sp-d16
   4              		.eabi_attribute 27, 1
   5              		.eabi_attribute 28, 1
   6              		.eabi_attribute 20, 1
   7              		.eabi_attribute 21, 1
   8              		.eabi_attribute 23, 3
   9              		.eabi_attribute 24, 1
  10              		.eabi_attribute 25, 1
  11              		.eabi_attribute 26, 1
  12              		.eabi_attribute 30, 6
  13              		.eabi_attribute 34, 1
  14              		.eabi_attribute 18, 4
  15              		.file	"stm32f4xx_flash_ramfunc.c"
  16              		.text
  17              	.Ltext0:
  18              		.cfi_sections	.debug_frame
  19              		.file 1 "./Lib/Src/stm32f4xx_flash_ramfunc.c"
  20              		.section	.RamFunc,"ax",%progbits
  21              		.align	1
  22              		.global	FLASH_FlashInterfaceCmd
  23              		.syntax unified
  24              		.thumb
  25              		.thumb_func
  27              	FLASH_FlashInterfaceCmd:
  28              	.LFB123:
   1:./Lib/Src/stm32f4xx_flash_ramfunc.c **** /**
   2:./Lib/Src/stm32f4xx_flash_ramfunc.c ****   ******************************************************************************
   3:./Lib/Src/stm32f4xx_flash_ramfunc.c ****   * @file    stm32f4xx_flash_ramfunc.c
   4:./Lib/Src/stm32f4xx_flash_ramfunc.c ****   * @author  MCD Application Team
   5:./Lib/Src/stm32f4xx_flash_ramfunc.c ****   * @version V1.8.1
   6:./Lib/Src/stm32f4xx_flash_ramfunc.c ****   * @date    27-January-2022
   7:./Lib/Src/stm32f4xx_flash_ramfunc.c ****   * @brief   FLASH RAMFUNC module driver.
   8:./Lib/Src/stm32f4xx_flash_ramfunc.c ****   *          This file provides a FLASH firmware functions which should be 
   9:./Lib/Src/stm32f4xx_flash_ramfunc.c ****   *          executed from internal SRAM
  10:./Lib/Src/stm32f4xx_flash_ramfunc.c ****   *            + Stop/Start the flash interface while System Run
  11:./Lib/Src/stm32f4xx_flash_ramfunc.c ****   *            + Enable/Disable the flash sleep while System Run
  12:./Lib/Src/stm32f4xx_flash_ramfunc.c ****   *  
  13:./Lib/Src/stm32f4xx_flash_ramfunc.c ****  @verbatim    
  14:./Lib/Src/stm32f4xx_flash_ramfunc.c ****  ==============================================================================
  15:./Lib/Src/stm32f4xx_flash_ramfunc.c ****                     ##### APIs executed from Internal RAM #####
  16:./Lib/Src/stm32f4xx_flash_ramfunc.c ****   ==============================================================================
  17:./Lib/Src/stm32f4xx_flash_ramfunc.c ****   [..]
  18:./Lib/Src/stm32f4xx_flash_ramfunc.c ****     *** ARM Compiler ***
  19:./Lib/Src/stm32f4xx_flash_ramfunc.c ****     --------------------
  20:./Lib/Src/stm32f4xx_flash_ramfunc.c ****     [..] RAM functions are defined using the toolchain options. 
  21:./Lib/Src/stm32f4xx_flash_ramfunc.c ****          Functions that are be executed in RAM should reside in a separate
  22:./Lib/Src/stm32f4xx_flash_ramfunc.c ****          source module. Using the 'Options for File' dialog you can simply change
  23:./Lib/Src/stm32f4xx_flash_ramfunc.c ****          the 'Code / Const' area of a module to a memory space in physical RAM.
  24:./Lib/Src/stm32f4xx_flash_ramfunc.c ****          Available memory areas are declared in the 'Target' tab of the 
  25:./Lib/Src/stm32f4xx_flash_ramfunc.c ****          Options for Target' dialog.
  26:./Lib/Src/stm32f4xx_flash_ramfunc.c **** 
  27:./Lib/Src/stm32f4xx_flash_ramfunc.c ****     *** ICCARM Compiler ***
  28:./Lib/Src/stm32f4xx_flash_ramfunc.c ****     -----------------------
  29:./Lib/Src/stm32f4xx_flash_ramfunc.c ****     [..] RAM functions are defined using a specific toolchain keyword "__ramfunc".
  30:./Lib/Src/stm32f4xx_flash_ramfunc.c **** 
ARM GAS  /tmp/ccH5Abi0.s 			page 2


  31:./Lib/Src/stm32f4xx_flash_ramfunc.c ****     *** GNU Compiler ***
  32:./Lib/Src/stm32f4xx_flash_ramfunc.c ****     --------------------
  33:./Lib/Src/stm32f4xx_flash_ramfunc.c ****     [..] RAM functions are defined using a specific toolchain attribute
  34:./Lib/Src/stm32f4xx_flash_ramfunc.c ****          "__attribute__((section(".RamFunc")))".
  35:./Lib/Src/stm32f4xx_flash_ramfunc.c ****   
  36:./Lib/Src/stm32f4xx_flash_ramfunc.c ****   @endverbatim
  37:./Lib/Src/stm32f4xx_flash_ramfunc.c ****   ******************************************************************************
  38:./Lib/Src/stm32f4xx_flash_ramfunc.c ****   * @attention
  39:./Lib/Src/stm32f4xx_flash_ramfunc.c ****   *
  40:./Lib/Src/stm32f4xx_flash_ramfunc.c ****   * Copyright (c) 2016 STMicroelectronics.
  41:./Lib/Src/stm32f4xx_flash_ramfunc.c ****   * All rights reserved.
  42:./Lib/Src/stm32f4xx_flash_ramfunc.c ****   *
  43:./Lib/Src/stm32f4xx_flash_ramfunc.c ****   * This software is licensed under terms that can be found in the LICENSE file
  44:./Lib/Src/stm32f4xx_flash_ramfunc.c ****   * in the root directory of this software component.
  45:./Lib/Src/stm32f4xx_flash_ramfunc.c ****   * If no LICENSE file comes with this software, it is provided AS-IS.
  46:./Lib/Src/stm32f4xx_flash_ramfunc.c ****   *
  47:./Lib/Src/stm32f4xx_flash_ramfunc.c ****   ******************************************************************************
  48:./Lib/Src/stm32f4xx_flash_ramfunc.c ****   */
  49:./Lib/Src/stm32f4xx_flash_ramfunc.c **** 
  50:./Lib/Src/stm32f4xx_flash_ramfunc.c **** /* Includes ------------------------------------------------------------------*/
  51:./Lib/Src/stm32f4xx_flash_ramfunc.c **** #include "stm32f4xx_flash_ramfunc.h"
  52:./Lib/Src/stm32f4xx_flash_ramfunc.c **** 
  53:./Lib/Src/stm32f4xx_flash_ramfunc.c **** /** @addtogroup STM32F4xx_StdPeriph_Driver
  54:./Lib/Src/stm32f4xx_flash_ramfunc.c ****   * @{
  55:./Lib/Src/stm32f4xx_flash_ramfunc.c ****   */
  56:./Lib/Src/stm32f4xx_flash_ramfunc.c **** 
  57:./Lib/Src/stm32f4xx_flash_ramfunc.c **** /** @defgroup FLASH RAMFUNC 
  58:./Lib/Src/stm32f4xx_flash_ramfunc.c ****   * @brief FLASH RAMFUNC driver modules
  59:./Lib/Src/stm32f4xx_flash_ramfunc.c ****   * @{
  60:./Lib/Src/stm32f4xx_flash_ramfunc.c ****   */ 
  61:./Lib/Src/stm32f4xx_flash_ramfunc.c **** 
  62:./Lib/Src/stm32f4xx_flash_ramfunc.c **** /* Private typedef -----------------------------------------------------------*/
  63:./Lib/Src/stm32f4xx_flash_ramfunc.c **** /* Private define ------------------------------------------------------------*/
  64:./Lib/Src/stm32f4xx_flash_ramfunc.c **** /* Private macro -------------------------------------------------------------*/
  65:./Lib/Src/stm32f4xx_flash_ramfunc.c **** /* Private variables ---------------------------------------------------------*/
  66:./Lib/Src/stm32f4xx_flash_ramfunc.c **** /* Private function prototypes -----------------------------------------------*/
  67:./Lib/Src/stm32f4xx_flash_ramfunc.c **** /* Private functions ---------------------------------------------------------*/
  68:./Lib/Src/stm32f4xx_flash_ramfunc.c **** 
  69:./Lib/Src/stm32f4xx_flash_ramfunc.c **** /** @defgroup FLASH_RAMFUNC_Private_Functions
  70:./Lib/Src/stm32f4xx_flash_ramfunc.c ****   * @{
  71:./Lib/Src/stm32f4xx_flash_ramfunc.c ****   */
  72:./Lib/Src/stm32f4xx_flash_ramfunc.c **** 
  73:./Lib/Src/stm32f4xx_flash_ramfunc.c **** /** @defgroup FLASH_RAMFUNC_Group1 Peripheral features functions executed from internal RAM 
  74:./Lib/Src/stm32f4xx_flash_ramfunc.c ****   *  @brief Peripheral Extended features functions 
  75:./Lib/Src/stm32f4xx_flash_ramfunc.c ****   *
  76:./Lib/Src/stm32f4xx_flash_ramfunc.c **** @verbatim   
  77:./Lib/Src/stm32f4xx_flash_ramfunc.c **** 
  78:./Lib/Src/stm32f4xx_flash_ramfunc.c ****  ===============================================================================
  79:./Lib/Src/stm32f4xx_flash_ramfunc.c ****                       ##### ramfunc functions #####
  80:./Lib/Src/stm32f4xx_flash_ramfunc.c ****  ===============================================================================
  81:./Lib/Src/stm32f4xx_flash_ramfunc.c ****     [..]
  82:./Lib/Src/stm32f4xx_flash_ramfunc.c ****     This subsection provides a set of functions that should be executed from RAM 
  83:./Lib/Src/stm32f4xx_flash_ramfunc.c ****     transfers.
  84:./Lib/Src/stm32f4xx_flash_ramfunc.c ****     
  85:./Lib/Src/stm32f4xx_flash_ramfunc.c **** @endverbatim
  86:./Lib/Src/stm32f4xx_flash_ramfunc.c ****   * @{
  87:./Lib/Src/stm32f4xx_flash_ramfunc.c ****   */
ARM GAS  /tmp/ccH5Abi0.s 			page 3


  88:./Lib/Src/stm32f4xx_flash_ramfunc.c **** 
  89:./Lib/Src/stm32f4xx_flash_ramfunc.c **** /**
  90:./Lib/Src/stm32f4xx_flash_ramfunc.c ****   * @brief Start/Stop the flash interface while System Run
  91:./Lib/Src/stm32f4xx_flash_ramfunc.c ****   * @note  This mode is only available for STM32F411xx devices. 
  92:./Lib/Src/stm32f4xx_flash_ramfunc.c ****   * @note  This mode could n't be set while executing with the flash itself. 
  93:./Lib/Src/stm32f4xx_flash_ramfunc.c ****   *        It should be done with specific routine executed from RAM.     
  94:./Lib/Src/stm32f4xx_flash_ramfunc.c ****   * @param  NewState: new state of the Smart Card mode.
  95:./Lib/Src/stm32f4xx_flash_ramfunc.c ****   *          This parameter can be: ENABLE or DISABLE.  
  96:./Lib/Src/stm32f4xx_flash_ramfunc.c ****   * @retval None
  97:./Lib/Src/stm32f4xx_flash_ramfunc.c ****   */
  98:./Lib/Src/stm32f4xx_flash_ramfunc.c **** __RAM_FUNC FLASH_FlashInterfaceCmd(FunctionalState NewState)
  99:./Lib/Src/stm32f4xx_flash_ramfunc.c **** {
  29              		.loc 1 99 1
  30              		.cfi_startproc
  31              		@ args = 0, pretend = 0, frame = 8
  32              		@ frame_needed = 1, uses_anonymous_args = 0
  33              		@ link register save eliminated.
  34 0000 80B4     		push	{r7}
  35              		.cfi_def_cfa_offset 4
  36              		.cfi_offset 7, -4
  37 0002 83B0     		sub	sp, sp, #12
  38              		.cfi_def_cfa_offset 16
  39 0004 00AF     		add	r7, sp, #0
  40              		.cfi_def_cfa_register 7
  41 0006 0346     		mov	r3, r0
  42 0008 FB71     		strb	r3, [r7, #7]
 100:./Lib/Src/stm32f4xx_flash_ramfunc.c ****   if (NewState != DISABLE)
  43              		.loc 1 100 6
  44 000a FB79     		ldrb	r3, [r7, #7]	@ zero_extendqisi2
  45 000c 002B     		cmp	r3, #0
  46 000e 06D0     		beq	.L2
 101:./Lib/Src/stm32f4xx_flash_ramfunc.c ****   {
 102:./Lib/Src/stm32f4xx_flash_ramfunc.c ****     /* Start the flash interface while System Run */
 103:./Lib/Src/stm32f4xx_flash_ramfunc.c ****     CLEAR_BIT(PWR->CR, PWR_CR_FISSR);
  47              		.loc 1 103 5
  48 0010 094B     		ldr	r3, .L5
  49 0012 1B68     		ldr	r3, [r3]
  50 0014 084A     		ldr	r2, .L5
  51 0016 23F40013 		bic	r3, r3, #2097152
  52 001a 1360     		str	r3, [r2]
 104:./Lib/Src/stm32f4xx_flash_ramfunc.c ****   }
 105:./Lib/Src/stm32f4xx_flash_ramfunc.c ****   else
 106:./Lib/Src/stm32f4xx_flash_ramfunc.c ****   {
 107:./Lib/Src/stm32f4xx_flash_ramfunc.c ****     /* Stop the flash interface while System Run */  
 108:./Lib/Src/stm32f4xx_flash_ramfunc.c ****     SET_BIT(PWR->CR, PWR_CR_FISSR);
 109:./Lib/Src/stm32f4xx_flash_ramfunc.c ****   }
 110:./Lib/Src/stm32f4xx_flash_ramfunc.c **** }
  53              		.loc 1 110 1
  54 001c 05E0     		b	.L4
  55              	.L2:
 108:./Lib/Src/stm32f4xx_flash_ramfunc.c ****   }
  56              		.loc 1 108 5
  57 001e 064B     		ldr	r3, .L5
  58 0020 1B68     		ldr	r3, [r3]
  59 0022 054A     		ldr	r2, .L5
  60 0024 43F40013 		orr	r3, r3, #2097152
  61 0028 1360     		str	r3, [r2]
ARM GAS  /tmp/ccH5Abi0.s 			page 4


  62              	.L4:
  63              		.loc 1 110 1
  64 002a 00BF     		nop
  65 002c 0C37     		adds	r7, r7, #12
  66              		.cfi_def_cfa_offset 4
  67 002e BD46     		mov	sp, r7
  68              		.cfi_def_cfa_register 13
  69              		@ sp needed
  70 0030 5DF8047B 		ldr	r7, [sp], #4
  71              		.cfi_restore 7
  72              		.cfi_def_cfa_offset 0
  73 0034 7047     		bx	lr
  74              	.L6:
  75 0036 00BF     		.align	2
  76              	.L5:
  77 0038 00700040 		.word	1073770496
  78              		.cfi_endproc
  79              	.LFE123:
  81              		.align	1
  82              		.global	FLASH_FlashSleepModeCmd
  83              		.syntax unified
  84              		.thumb
  85              		.thumb_func
  87              	FLASH_FlashSleepModeCmd:
  88              	.LFB124:
 111:./Lib/Src/stm32f4xx_flash_ramfunc.c **** 
 112:./Lib/Src/stm32f4xx_flash_ramfunc.c **** /**
 113:./Lib/Src/stm32f4xx_flash_ramfunc.c ****   * @brief Enable/Disable the flash sleep while System Run
 114:./Lib/Src/stm32f4xx_flash_ramfunc.c ****   * @note  This mode is only available for STM32F411xx devices. 
 115:./Lib/Src/stm32f4xx_flash_ramfunc.c ****   * @note  This mode could n't be set while executing with the flash itself. 
 116:./Lib/Src/stm32f4xx_flash_ramfunc.c ****   *        It should be done with specific routine executed from RAM.     
 117:./Lib/Src/stm32f4xx_flash_ramfunc.c ****   * @param  NewState: new state of the Smart Card mode.
 118:./Lib/Src/stm32f4xx_flash_ramfunc.c ****   *          This parameter can be: ENABLE or DISABLE.  
 119:./Lib/Src/stm32f4xx_flash_ramfunc.c ****   * @retval None
 120:./Lib/Src/stm32f4xx_flash_ramfunc.c ****   */
 121:./Lib/Src/stm32f4xx_flash_ramfunc.c **** __RAM_FUNC FLASH_FlashSleepModeCmd(FunctionalState NewState)
 122:./Lib/Src/stm32f4xx_flash_ramfunc.c **** {
  89              		.loc 1 122 1
  90              		.cfi_startproc
  91              		@ args = 0, pretend = 0, frame = 8
  92              		@ frame_needed = 1, uses_anonymous_args = 0
  93              		@ link register save eliminated.
  94 003c 80B4     		push	{r7}
  95              		.cfi_def_cfa_offset 4
  96              		.cfi_offset 7, -4
  97 003e 83B0     		sub	sp, sp, #12
  98              		.cfi_def_cfa_offset 16
  99 0040 00AF     		add	r7, sp, #0
 100              		.cfi_def_cfa_register 7
 101 0042 0346     		mov	r3, r0
 102 0044 FB71     		strb	r3, [r7, #7]
 123:./Lib/Src/stm32f4xx_flash_ramfunc.c ****   if (NewState != DISABLE)
 103              		.loc 1 123 6
 104 0046 FB79     		ldrb	r3, [r7, #7]	@ zero_extendqisi2
 105 0048 002B     		cmp	r3, #0
 106 004a 06D0     		beq	.L8
 124:./Lib/Src/stm32f4xx_flash_ramfunc.c ****   {
ARM GAS  /tmp/ccH5Abi0.s 			page 5


 125:./Lib/Src/stm32f4xx_flash_ramfunc.c ****     /* Enable the flash sleep while System Run */
 126:./Lib/Src/stm32f4xx_flash_ramfunc.c ****     SET_BIT(PWR->CR, PWR_CR_FMSSR);
 107              		.loc 1 126 5
 108 004c 094B     		ldr	r3, .L11
 109 004e 1B68     		ldr	r3, [r3]
 110 0050 084A     		ldr	r2, .L11
 111 0052 43F48013 		orr	r3, r3, #1048576
 112 0056 1360     		str	r3, [r2]
 127:./Lib/Src/stm32f4xx_flash_ramfunc.c ****   }
 128:./Lib/Src/stm32f4xx_flash_ramfunc.c ****   else
 129:./Lib/Src/stm32f4xx_flash_ramfunc.c ****   {
 130:./Lib/Src/stm32f4xx_flash_ramfunc.c ****     /* Disable the flash sleep while System Run */
 131:./Lib/Src/stm32f4xx_flash_ramfunc.c ****     CLEAR_BIT(PWR->CR, PWR_CR_FMSSR);
 132:./Lib/Src/stm32f4xx_flash_ramfunc.c ****   }
 133:./Lib/Src/stm32f4xx_flash_ramfunc.c **** }
 113              		.loc 1 133 1
 114 0058 05E0     		b	.L10
 115              	.L8:
 131:./Lib/Src/stm32f4xx_flash_ramfunc.c ****   }
 116              		.loc 1 131 5
 117 005a 064B     		ldr	r3, .L11
 118 005c 1B68     		ldr	r3, [r3]
 119 005e 054A     		ldr	r2, .L11
 120 0060 23F48013 		bic	r3, r3, #1048576
 121 0064 1360     		str	r3, [r2]
 122              	.L10:
 123              		.loc 1 133 1
 124 0066 00BF     		nop
 125 0068 0C37     		adds	r7, r7, #12
 126              		.cfi_def_cfa_offset 4
 127 006a BD46     		mov	sp, r7
 128              		.cfi_def_cfa_register 13
 129              		@ sp needed
 130 006c 5DF8047B 		ldr	r7, [sp], #4
 131              		.cfi_restore 7
 132              		.cfi_def_cfa_offset 0
 133 0070 7047     		bx	lr
 134              	.L12:
 135 0072 00BF     		.align	2
 136              	.L11:
 137 0074 00700040 		.word	1073770496
 138              		.cfi_endproc
 139              	.LFE124:
 141              		.text
 142              	.Letext0:
 143              		.file 2 "/usr/lib/gcc/arm-none-eabi/12.2.1/include/stdint.h"
 144              		.file 3 "./Start/stm32f4xx.h"
ARM GAS  /tmp/ccH5Abi0.s 			page 6

