ARM GAS  /tmp/cch3TuEN.s 			page 1


   1              		.cpu cortex-m4
   2              		.arch armv7e-m
   3              		.fpu fpv4-sp-d16
   4              		.eabi_attribute 27, 1
   5              		.eabi_attribute 28, 1
   6              		.eabi_attribute 20, 1
   7              		.eabi_attribute 21, 1
   8              		.eabi_attribute 23, 3
   9              		.eabi_attribute 24, 1
  10              		.eabi_attribute 25, 1
  11              		.eabi_attribute 26, 1
  12              		.eabi_attribute 30, 6
  13              		.eabi_attribute 34, 1
  14              		.eabi_attribute 18, 4
  15              		.file	"stm32f4xx_it.c"
  16              		.text
  17              	.Ltext0:
  18              		.cfi_sections	.debug_frame
  19              		.file 1 "./User/Src/stm32f4xx_it.c"
  20              		.section	.text.NMI_Handler,"ax",%progbits
  21              		.align	1
  22              		.global	NMI_Handler
  23              		.syntax unified
  24              		.thumb
  25              		.thumb_func
  27              	NMI_Handler:
  28              	.LFB123:
   1:./User/Src/stm32f4xx_it.c **** /**
   2:./User/Src/stm32f4xx_it.c ****   ******************************************************************************
   3:./User/Src/stm32f4xx_it.c ****   * @file    Project/STM32F4xx_StdPeriph_Templates/stm32f4xx_it.c 
   4:./User/Src/stm32f4xx_it.c ****   * @author  MCD Application Team
   5:./User/Src/stm32f4xx_it.c ****   * @version V1.8.1
   6:./User/Src/stm32f4xx_it.c ****   * @date    27-January-2022
   7:./User/Src/stm32f4xx_it.c ****   * @brief   Main Interrupt Service Routines.
   8:./User/Src/stm32f4xx_it.c ****   *          This file provides template for all exceptions handler and 
   9:./User/Src/stm32f4xx_it.c ****   *          peripherals interrupt service routine.
  10:./User/Src/stm32f4xx_it.c ****   ******************************************************************************
  11:./User/Src/stm32f4xx_it.c ****   * @attention
  12:./User/Src/stm32f4xx_it.c ****   *
  13:./User/Src/stm32f4xx_it.c ****   * Copyright (c) 2016 STMicroelectronics.
  14:./User/Src/stm32f4xx_it.c ****   * All rights reserved.
  15:./User/Src/stm32f4xx_it.c ****   *
  16:./User/Src/stm32f4xx_it.c ****   * This software is licensed under terms that can be found in the LICENSE file
  17:./User/Src/stm32f4xx_it.c ****   * in the root directory of this software component.
  18:./User/Src/stm32f4xx_it.c ****   * If no LICENSE file comes with this software, it is provided AS-IS.
  19:./User/Src/stm32f4xx_it.c ****   *
  20:./User/Src/stm32f4xx_it.c ****   ******************************************************************************
  21:./User/Src/stm32f4xx_it.c ****   */
  22:./User/Src/stm32f4xx_it.c **** 
  23:./User/Src/stm32f4xx_it.c **** /* Includes ------------------------------------------------------------------*/
  24:./User/Src/stm32f4xx_it.c **** //#include "stm32f4xx_it.h"
  25:./User/Src/stm32f4xx_it.c **** //#include "ucos_ii.h"
  26:./User/Src/stm32f4xx_it.c **** #include "main.h"
  27:./User/Src/stm32f4xx_it.c **** 
  28:./User/Src/stm32f4xx_it.c **** /** @addtogroup Template_Project
  29:./User/Src/stm32f4xx_it.c ****   * @{
  30:./User/Src/stm32f4xx_it.c ****   */
ARM GAS  /tmp/cch3TuEN.s 			page 2


  31:./User/Src/stm32f4xx_it.c **** 
  32:./User/Src/stm32f4xx_it.c **** /* Private typedef -----------------------------------------------------------*/
  33:./User/Src/stm32f4xx_it.c **** /* Private define ------------------------------------------------------------*/
  34:./User/Src/stm32f4xx_it.c **** /* Private macro -------------------------------------------------------------*/
  35:./User/Src/stm32f4xx_it.c **** /* Private variables ---------------------------------------------------------*/
  36:./User/Src/stm32f4xx_it.c **** /* Private function prototypes -----------------------------------------------*/
  37:./User/Src/stm32f4xx_it.c **** /* Private functions ---------------------------------------------------------*/
  38:./User/Src/stm32f4xx_it.c **** 
  39:./User/Src/stm32f4xx_it.c **** /******************************************************************************/
  40:./User/Src/stm32f4xx_it.c **** /*            Cortex-M4 Processor Exceptions Handlers                         */
  41:./User/Src/stm32f4xx_it.c **** /******************************************************************************/
  42:./User/Src/stm32f4xx_it.c **** 
  43:./User/Src/stm32f4xx_it.c **** /**
  44:./User/Src/stm32f4xx_it.c ****   * @brief  This function handles NMI exception.
  45:./User/Src/stm32f4xx_it.c ****   * @param  None
  46:./User/Src/stm32f4xx_it.c ****   * @retval None
  47:./User/Src/stm32f4xx_it.c ****   */
  48:./User/Src/stm32f4xx_it.c **** void NMI_Handler(void)
  49:./User/Src/stm32f4xx_it.c **** {
  29              		.loc 1 49 1
  30              		.cfi_startproc
  31              		@ args = 0, pretend = 0, frame = 0
  32              		@ frame_needed = 1, uses_anonymous_args = 0
  33              		@ link register save eliminated.
  34 0000 80B4     		push	{r7}
  35              		.cfi_def_cfa_offset 4
  36              		.cfi_offset 7, -4
  37 0002 00AF     		add	r7, sp, #0
  38              		.cfi_def_cfa_register 7
  50:./User/Src/stm32f4xx_it.c **** }
  39              		.loc 1 50 1
  40 0004 00BF     		nop
  41 0006 BD46     		mov	sp, r7
  42              		.cfi_def_cfa_register 13
  43              		@ sp needed
  44 0008 5DF8047B 		ldr	r7, [sp], #4
  45              		.cfi_restore 7
  46              		.cfi_def_cfa_offset 0
  47 000c 7047     		bx	lr
  48              		.cfi_endproc
  49              	.LFE123:
  51              		.section	.text.HardFault_Handler,"ax",%progbits
  52              		.align	1
  53              		.global	HardFault_Handler
  54              		.syntax unified
  55              		.thumb
  56              		.thumb_func
  58              	HardFault_Handler:
  59              	.LFB124:
  51:./User/Src/stm32f4xx_it.c **** 
  52:./User/Src/stm32f4xx_it.c **** /**
  53:./User/Src/stm32f4xx_it.c ****   * @brief  This function handles Hard Fault exception.
  54:./User/Src/stm32f4xx_it.c ****   * @param  None
  55:./User/Src/stm32f4xx_it.c ****   * @retval None
  56:./User/Src/stm32f4xx_it.c ****   */
  57:./User/Src/stm32f4xx_it.c **** void HardFault_Handler(void)
  58:./User/Src/stm32f4xx_it.c **** {
ARM GAS  /tmp/cch3TuEN.s 			page 3


  60              		.loc 1 58 1
  61              		.cfi_startproc
  62              		@ args = 0, pretend = 0, frame = 0
  63              		@ frame_needed = 1, uses_anonymous_args = 0
  64              		@ link register save eliminated.
  65 0000 80B4     		push	{r7}
  66              		.cfi_def_cfa_offset 4
  67              		.cfi_offset 7, -4
  68 0002 00AF     		add	r7, sp, #0
  69              		.cfi_def_cfa_register 7
  70              	.L3:
  59:./User/Src/stm32f4xx_it.c ****   /* Go to infinite loop when Hard Fault exception occurs */
  60:./User/Src/stm32f4xx_it.c ****   while (1)
  71              		.loc 1 60 9 discriminator 1
  72 0004 00BF     		nop
  73 0006 FDE7     		b	.L3
  74              		.cfi_endproc
  75              	.LFE124:
  77              		.section	.text.MemManage_Handler,"ax",%progbits
  78              		.align	1
  79              		.global	MemManage_Handler
  80              		.syntax unified
  81              		.thumb
  82              		.thumb_func
  84              	MemManage_Handler:
  85              	.LFB125:
  61:./User/Src/stm32f4xx_it.c ****   {
  62:./User/Src/stm32f4xx_it.c ****   }
  63:./User/Src/stm32f4xx_it.c **** }
  64:./User/Src/stm32f4xx_it.c **** 
  65:./User/Src/stm32f4xx_it.c **** /**
  66:./User/Src/stm32f4xx_it.c ****   * @brief  This function handles Memory Manage exception.
  67:./User/Src/stm32f4xx_it.c ****   * @param  None
  68:./User/Src/stm32f4xx_it.c ****   * @retval None
  69:./User/Src/stm32f4xx_it.c ****   */
  70:./User/Src/stm32f4xx_it.c **** void MemManage_Handler(void)
  71:./User/Src/stm32f4xx_it.c **** {
  86              		.loc 1 71 1
  87              		.cfi_startproc
  88              		@ args = 0, pretend = 0, frame = 0
  89              		@ frame_needed = 1, uses_anonymous_args = 0
  90              		@ link register save eliminated.
  91 0000 80B4     		push	{r7}
  92              		.cfi_def_cfa_offset 4
  93              		.cfi_offset 7, -4
  94 0002 00AF     		add	r7, sp, #0
  95              		.cfi_def_cfa_register 7
  96              	.L5:
  72:./User/Src/stm32f4xx_it.c ****   /* Go to infinite loop when Memory Manage exception occurs */
  73:./User/Src/stm32f4xx_it.c ****   while (1)
  97              		.loc 1 73 9 discriminator 1
  98 0004 00BF     		nop
  99 0006 FDE7     		b	.L5
 100              		.cfi_endproc
 101              	.LFE125:
 103              		.section	.text.BusFault_Handler,"ax",%progbits
 104              		.align	1
ARM GAS  /tmp/cch3TuEN.s 			page 4


 105              		.global	BusFault_Handler
 106              		.syntax unified
 107              		.thumb
 108              		.thumb_func
 110              	BusFault_Handler:
 111              	.LFB126:
  74:./User/Src/stm32f4xx_it.c ****   {
  75:./User/Src/stm32f4xx_it.c ****   }
  76:./User/Src/stm32f4xx_it.c **** }
  77:./User/Src/stm32f4xx_it.c **** 
  78:./User/Src/stm32f4xx_it.c **** /**
  79:./User/Src/stm32f4xx_it.c ****   * @brief  This function handles Bus Fault exception.
  80:./User/Src/stm32f4xx_it.c ****   * @param  None
  81:./User/Src/stm32f4xx_it.c ****   * @retval None
  82:./User/Src/stm32f4xx_it.c ****   */
  83:./User/Src/stm32f4xx_it.c **** void BusFault_Handler(void)
  84:./User/Src/stm32f4xx_it.c **** {
 112              		.loc 1 84 1
 113              		.cfi_startproc
 114              		@ args = 0, pretend = 0, frame = 0
 115              		@ frame_needed = 1, uses_anonymous_args = 0
 116              		@ link register save eliminated.
 117 0000 80B4     		push	{r7}
 118              		.cfi_def_cfa_offset 4
 119              		.cfi_offset 7, -4
 120 0002 00AF     		add	r7, sp, #0
 121              		.cfi_def_cfa_register 7
 122              	.L7:
  85:./User/Src/stm32f4xx_it.c ****   /* Go to infinite loop when Bus Fault exception occurs */
  86:./User/Src/stm32f4xx_it.c ****   while (1)
 123              		.loc 1 86 9 discriminator 1
 124 0004 00BF     		nop
 125 0006 FDE7     		b	.L7
 126              		.cfi_endproc
 127              	.LFE126:
 129              		.section	.text.UsageFault_Handler,"ax",%progbits
 130              		.align	1
 131              		.global	UsageFault_Handler
 132              		.syntax unified
 133              		.thumb
 134              		.thumb_func
 136              	UsageFault_Handler:
 137              	.LFB127:
  87:./User/Src/stm32f4xx_it.c ****   {
  88:./User/Src/stm32f4xx_it.c ****   }
  89:./User/Src/stm32f4xx_it.c **** }
  90:./User/Src/stm32f4xx_it.c **** 
  91:./User/Src/stm32f4xx_it.c **** /**
  92:./User/Src/stm32f4xx_it.c ****   * @brief  This function handles Usage Fault exception.
  93:./User/Src/stm32f4xx_it.c ****   * @param  None
  94:./User/Src/stm32f4xx_it.c ****   * @retval None
  95:./User/Src/stm32f4xx_it.c ****   */
  96:./User/Src/stm32f4xx_it.c **** void UsageFault_Handler(void)
  97:./User/Src/stm32f4xx_it.c **** {
 138              		.loc 1 97 1
 139              		.cfi_startproc
 140              		@ args = 0, pretend = 0, frame = 0
ARM GAS  /tmp/cch3TuEN.s 			page 5


 141              		@ frame_needed = 1, uses_anonymous_args = 0
 142              		@ link register save eliminated.
 143 0000 80B4     		push	{r7}
 144              		.cfi_def_cfa_offset 4
 145              		.cfi_offset 7, -4
 146 0002 00AF     		add	r7, sp, #0
 147              		.cfi_def_cfa_register 7
 148              	.L9:
  98:./User/Src/stm32f4xx_it.c ****   /* Go to infinite loop when Usage Fault exception occurs */
  99:./User/Src/stm32f4xx_it.c ****   while (1)
 149              		.loc 1 99 9 discriminator 1
 150 0004 00BF     		nop
 151 0006 FDE7     		b	.L9
 152              		.cfi_endproc
 153              	.LFE127:
 155              		.section	.text.SVC_Handler,"ax",%progbits
 156              		.align	1
 157              		.global	SVC_Handler
 158              		.syntax unified
 159              		.thumb
 160              		.thumb_func
 162              	SVC_Handler:
 163              	.LFB128:
 100:./User/Src/stm32f4xx_it.c ****   {
 101:./User/Src/stm32f4xx_it.c ****   }
 102:./User/Src/stm32f4xx_it.c **** }
 103:./User/Src/stm32f4xx_it.c **** 
 104:./User/Src/stm32f4xx_it.c **** /**
 105:./User/Src/stm32f4xx_it.c ****   * @brief  This function handles SVCall exception.
 106:./User/Src/stm32f4xx_it.c ****   * @param  None
 107:./User/Src/stm32f4xx_it.c ****   * @retval None
 108:./User/Src/stm32f4xx_it.c ****   */
 109:./User/Src/stm32f4xx_it.c **** void SVC_Handler(void)
 110:./User/Src/stm32f4xx_it.c **** {
 164              		.loc 1 110 1
 165              		.cfi_startproc
 166              		@ args = 0, pretend = 0, frame = 0
 167              		@ frame_needed = 1, uses_anonymous_args = 0
 168              		@ link register save eliminated.
 169 0000 80B4     		push	{r7}
 170              		.cfi_def_cfa_offset 4
 171              		.cfi_offset 7, -4
 172 0002 00AF     		add	r7, sp, #0
 173              		.cfi_def_cfa_register 7
 111:./User/Src/stm32f4xx_it.c **** }
 174              		.loc 1 111 1
 175 0004 00BF     		nop
 176 0006 BD46     		mov	sp, r7
 177              		.cfi_def_cfa_register 13
 178              		@ sp needed
 179 0008 5DF8047B 		ldr	r7, [sp], #4
 180              		.cfi_restore 7
 181              		.cfi_def_cfa_offset 0
 182 000c 7047     		bx	lr
 183              		.cfi_endproc
 184              	.LFE128:
 186              		.section	.text.DebugMon_Handler,"ax",%progbits
ARM GAS  /tmp/cch3TuEN.s 			page 6


 187              		.align	1
 188              		.global	DebugMon_Handler
 189              		.syntax unified
 190              		.thumb
 191              		.thumb_func
 193              	DebugMon_Handler:
 194              	.LFB129:
 112:./User/Src/stm32f4xx_it.c **** 
 113:./User/Src/stm32f4xx_it.c **** /**
 114:./User/Src/stm32f4xx_it.c ****   * @brief  This function handles Debug Monitor exception.
 115:./User/Src/stm32f4xx_it.c ****   * @param  None
 116:./User/Src/stm32f4xx_it.c ****   * @retval None
 117:./User/Src/stm32f4xx_it.c ****   */
 118:./User/Src/stm32f4xx_it.c **** void DebugMon_Handler(void)
 119:./User/Src/stm32f4xx_it.c **** {
 195              		.loc 1 119 1
 196              		.cfi_startproc
 197              		@ args = 0, pretend = 0, frame = 0
 198              		@ frame_needed = 1, uses_anonymous_args = 0
 199              		@ link register save eliminated.
 200 0000 80B4     		push	{r7}
 201              		.cfi_def_cfa_offset 4
 202              		.cfi_offset 7, -4
 203 0002 00AF     		add	r7, sp, #0
 204              		.cfi_def_cfa_register 7
 120:./User/Src/stm32f4xx_it.c **** }
 205              		.loc 1 120 1
 206 0004 00BF     		nop
 207 0006 BD46     		mov	sp, r7
 208              		.cfi_def_cfa_register 13
 209              		@ sp needed
 210 0008 5DF8047B 		ldr	r7, [sp], #4
 211              		.cfi_restore 7
 212              		.cfi_def_cfa_offset 0
 213 000c 7047     		bx	lr
 214              		.cfi_endproc
 215              	.LFE129:
 217              		.section	.text.SysTick_Handler,"ax",%progbits
 218              		.align	1
 219              		.global	SysTick_Handler
 220              		.syntax unified
 221              		.thumb
 222              		.thumb_func
 224              	SysTick_Handler:
 225              	.LFB130:
 121:./User/Src/stm32f4xx_it.c **** 
 122:./User/Src/stm32f4xx_it.c **** /**
 123:./User/Src/stm32f4xx_it.c ****   * @brief  This function handles PendSVC exception.
 124:./User/Src/stm32f4xx_it.c ****   * @param  None
 125:./User/Src/stm32f4xx_it.c ****   * @retval None
 126:./User/Src/stm32f4xx_it.c ****   */
 127:./User/Src/stm32f4xx_it.c **** //void PendSV_Handler(void)
 128:./User/Src/stm32f4xx_it.c **** //{
 129:./User/Src/stm32f4xx_it.c **** //}
 130:./User/Src/stm32f4xx_it.c **** 
 131:./User/Src/stm32f4xx_it.c **** /**
 132:./User/Src/stm32f4xx_it.c ****   * @brief  This function handles SysTick Handler.
ARM GAS  /tmp/cch3TuEN.s 			page 7


 133:./User/Src/stm32f4xx_it.c ****   * @param  None
 134:./User/Src/stm32f4xx_it.c ****   * @retval None
 135:./User/Src/stm32f4xx_it.c ****   */
 136:./User/Src/stm32f4xx_it.c **** void SysTick_Handler(void)
 137:./User/Src/stm32f4xx_it.c **** {
 226              		.loc 1 137 1
 227              		.cfi_startproc
 228              		@ args = 0, pretend = 0, frame = 0
 229              		@ frame_needed = 1, uses_anonymous_args = 0
 230              		@ link register save eliminated.
 231 0000 80B4     		push	{r7}
 232              		.cfi_def_cfa_offset 4
 233              		.cfi_offset 7, -4
 234 0002 00AF     		add	r7, sp, #0
 235              		.cfi_def_cfa_register 7
 138:./User/Src/stm32f4xx_it.c ****   //TimingDelay_Decrement();
 139:./User/Src/stm32f4xx_it.c **** }
 236              		.loc 1 139 1
 237 0004 00BF     		nop
 238 0006 BD46     		mov	sp, r7
 239              		.cfi_def_cfa_register 13
 240              		@ sp needed
 241 0008 5DF8047B 		ldr	r7, [sp], #4
 242              		.cfi_restore 7
 243              		.cfi_def_cfa_offset 0
 244 000c 7047     		bx	lr
 245              		.cfi_endproc
 246              	.LFE130:
 248              		.text
 249              	.Letext0:
ARM GAS  /tmp/cch3TuEN.s 			page 8

