ARM GAS  /tmp/cclgu0VH.s 			page 1


   1              		.cpu cortex-m4
   2              		.arch armv7e-m
   3              		.fpu fpv4-sp-d16
   4              		.eabi_attribute 27, 1
   5              		.eabi_attribute 28, 1
   6              		.eabi_attribute 20, 1
   7              		.eabi_attribute 21, 1
   8              		.eabi_attribute 23, 3
   9              		.eabi_attribute 24, 1
  10              		.eabi_attribute 25, 1
  11              		.eabi_attribute 26, 1
  12              		.eabi_attribute 30, 6
  13              		.eabi_attribute 34, 1
  14              		.eabi_attribute 18, 4
  15              		.file	"undef.c"
  16              		.text
  17              	.Ltext0:
  18              		.cfi_sections	.debug_frame
  19              		.file 1 "./Tools/Src/undef.c"
  20              		.section	.text._write,"ax",%progbits
  21              		.align	1
  22              		.global	_write
  23              		.syntax unified
  24              		.thumb
  25              		.thumb_func
  27              	_write:
  28              	.LFB0:
   1:./Tools/Src/undef.c **** #include <stddef.h>
   2:./Tools/Src/undef.c **** int _write (int file, const void * ptr, size_t len)
   3:./Tools/Src/undef.c **** {
  29              		.loc 1 3 1
  30              		.cfi_startproc
  31              		@ args = 0, pretend = 0, frame = 16
  32              		@ frame_needed = 1, uses_anonymous_args = 0
  33              		@ link register save eliminated.
  34 0000 80B4     		push	{r7}
  35              		.cfi_def_cfa_offset 4
  36              		.cfi_offset 7, -4
  37 0002 85B0     		sub	sp, sp, #20
  38              		.cfi_def_cfa_offset 24
  39 0004 00AF     		add	r7, sp, #0
  40              		.cfi_def_cfa_register 7
  41 0006 F860     		str	r0, [r7, #12]
  42 0008 B960     		str	r1, [r7, #8]
  43 000a 7A60     		str	r2, [r7, #4]
   4:./Tools/Src/undef.c ****     int i;
   5:./Tools/Src/undef.c ****     char ch;
   6:./Tools/Src/undef.c ****     // for(i=0;i<len;++i)
   7:./Tools/Src/undef.c ****     // {
   8:./Tools/Src/undef.c ****     //     OLED_ScreenSwitchCheck();
   9:./Tools/Src/undef.c ****     //     ch = *(char*)ptr;
  10:./Tools/Src/undef.c ****     //     if(ch == '\n')
  11:./Tools/Src/undef.c ****     //         OLED_Newline();
  12:./Tools/Src/undef.c ****     //     else
  13:./Tools/Src/undef.c ****     //     {
  14:./Tools/Src/undef.c ****     //         OLED_Update_Pos();
  15:./Tools/Src/undef.c ****     //         OLED_ShowChar(_ssd1306_pos_x,_ssd1306_pos_y,*((char*)ptr++));
ARM GAS  /tmp/cclgu0VH.s 			page 2


  16:./Tools/Src/undef.c ****     //     }
  17:./Tools/Src/undef.c ****     // }
  18:./Tools/Src/undef.c **** 
  19:./Tools/Src/undef.c ****     // for(i =0;i<len;++i)
  20:./Tools/Src/undef.c ****     // {
  21:./Tools/Src/undef.c ****     //     HAL_UART_Transmit(&huart1, &(((uint8_t*)ptr)[i]), 1, 0);
  22:./Tools/Src/undef.c ****     //     delay_ms(1);
  23:./Tools/Src/undef.c ****     // }
  24:./Tools/Src/undef.c **** 
  25:./Tools/Src/undef.c ****     return len;
  44              		.loc 1 25 12
  45 000c 7B68     		ldr	r3, [r7, #4]
  26:./Tools/Src/undef.c **** }
  46              		.loc 1 26 1
  47 000e 1846     		mov	r0, r3
  48 0010 1437     		adds	r7, r7, #20
  49              		.cfi_def_cfa_offset 4
  50 0012 BD46     		mov	sp, r7
  51              		.cfi_def_cfa_register 13
  52              		@ sp needed
  53 0014 5DF8047B 		ldr	r7, [sp], #4
  54              		.cfi_restore 7
  55              		.cfi_def_cfa_offset 0
  56 0018 7047     		bx	lr
  57              		.cfi_endproc
  58              	.LFE0:
  60              		.section	.text._read,"ax",%progbits
  61              		.align	1
  62              		.global	_read
  63              		.syntax unified
  64              		.thumb
  65              		.thumb_func
  67              	_read:
  68              	.LFB1:
  27:./Tools/Src/undef.c **** 
  28:./Tools/Src/undef.c **** // _ssize_t
  29:./Tools/Src/undef.c **** // _write_r (struct _reent *ptr,
  30:./Tools/Src/undef.c **** //      int fd,
  31:./Tools/Src/undef.c **** //      const void *buf,
  32:./Tools/Src/undef.c **** //      size_t cnt);
  33:./Tools/Src/undef.c **** 
  34:./Tools/Src/undef.c **** int _read (int __fd, void *__buf, size_t __nbyte){return 0;}
  69              		.loc 1 34 50
  70              		.cfi_startproc
  71              		@ args = 0, pretend = 0, frame = 16
  72              		@ frame_needed = 1, uses_anonymous_args = 0
  73              		@ link register save eliminated.
  74 0000 80B4     		push	{r7}
  75              		.cfi_def_cfa_offset 4
  76              		.cfi_offset 7, -4
  77 0002 85B0     		sub	sp, sp, #20
  78              		.cfi_def_cfa_offset 24
  79 0004 00AF     		add	r7, sp, #0
  80              		.cfi_def_cfa_register 7
  81 0006 F860     		str	r0, [r7, #12]
  82 0008 B960     		str	r1, [r7, #8]
  83 000a 7A60     		str	r2, [r7, #4]
ARM GAS  /tmp/cclgu0VH.s 			page 3


  84              		.loc 1 34 58
  85 000c 0023     		movs	r3, #0
  86              		.loc 1 34 60
  87 000e 1846     		mov	r0, r3
  88 0010 1437     		adds	r7, r7, #20
  89              		.cfi_def_cfa_offset 4
  90 0012 BD46     		mov	sp, r7
  91              		.cfi_def_cfa_register 13
  92              		@ sp needed
  93 0014 5DF8047B 		ldr	r7, [sp], #4
  94              		.cfi_restore 7
  95              		.cfi_def_cfa_offset 0
  96 0018 7047     		bx	lr
  97              		.cfi_endproc
  98              	.LFE1:
 100              		.section	.text._close,"ax",%progbits
 101              		.align	1
 102              		.global	_close
 103              		.syntax unified
 104              		.thumb
 105              		.thumb_func
 107              	_close:
 108              	.LFB2:
  35:./Tools/Src/undef.c **** 
  36:./Tools/Src/undef.c **** // _ssize_t
  37:./Tools/Src/undef.c **** // _read_r (struct _reent *ptr,
  38:./Tools/Src/undef.c **** //      int fd,
  39:./Tools/Src/undef.c **** //      void *buf,
  40:./Tools/Src/undef.c **** //      size_t cnt){return 0;}
  41:./Tools/Src/undef.c **** 
  42:./Tools/Src/undef.c **** int     _close (int fd){return 0;}
 109              		.loc 1 42 24
 110              		.cfi_startproc
 111              		@ args = 0, pretend = 0, frame = 8
 112              		@ frame_needed = 1, uses_anonymous_args = 0
 113              		@ link register save eliminated.
 114 0000 80B4     		push	{r7}
 115              		.cfi_def_cfa_offset 4
 116              		.cfi_offset 7, -4
 117 0002 83B0     		sub	sp, sp, #12
 118              		.cfi_def_cfa_offset 16
 119 0004 00AF     		add	r7, sp, #0
 120              		.cfi_def_cfa_register 7
 121 0006 7860     		str	r0, [r7, #4]
 122              		.loc 1 42 32
 123 0008 0023     		movs	r3, #0
 124              		.loc 1 42 34
 125 000a 1846     		mov	r0, r3
 126 000c 0C37     		adds	r7, r7, #12
 127              		.cfi_def_cfa_offset 4
 128 000e BD46     		mov	sp, r7
 129              		.cfi_def_cfa_register 13
 130              		@ sp needed
 131 0010 5DF8047B 		ldr	r7, [sp], #4
 132              		.cfi_restore 7
 133              		.cfi_def_cfa_offset 0
 134 0014 7047     		bx	lr
ARM GAS  /tmp/cclgu0VH.s 			page 4


 135              		.cfi_endproc
 136              	.LFE2:
 138              		.section	.text._fstat,"ax",%progbits
 139              		.align	1
 140              		.global	_fstat
 141              		.syntax unified
 142              		.thumb
 143              		.thumb_func
 145              	_fstat:
 146              	.LFB3:
  43:./Tools/Src/undef.c **** 
  44:./Tools/Src/undef.c **** // int _close_r(struct _reent *ptr,
  45:./Tools/Src/undef.c **** //      int fd){return 0;}
  46:./Tools/Src/undef.c **** 
  47:./Tools/Src/undef.c **** int	_fstat (int __fd, struct stat *__sbuf ){return 0;}
 147              		.loc 1 47 44
 148              		.cfi_startproc
 149              		@ args = 0, pretend = 0, frame = 8
 150              		@ frame_needed = 1, uses_anonymous_args = 0
 151              		@ link register save eliminated.
 152 0000 80B4     		push	{r7}
 153              		.cfi_def_cfa_offset 4
 154              		.cfi_offset 7, -4
 155 0002 83B0     		sub	sp, sp, #12
 156              		.cfi_def_cfa_offset 16
 157 0004 00AF     		add	r7, sp, #0
 158              		.cfi_def_cfa_register 7
 159 0006 7860     		str	r0, [r7, #4]
 160 0008 3960     		str	r1, [r7]
 161              		.loc 1 47 52
 162 000a 0023     		movs	r3, #0
 163              		.loc 1 47 54
 164 000c 1846     		mov	r0, r3
 165 000e 0C37     		adds	r7, r7, #12
 166              		.cfi_def_cfa_offset 4
 167 0010 BD46     		mov	sp, r7
 168              		.cfi_def_cfa_register 13
 169              		@ sp needed
 170 0012 5DF8047B 		ldr	r7, [sp], #4
 171              		.cfi_restore 7
 172              		.cfi_def_cfa_offset 0
 173 0016 7047     		bx	lr
 174              		.cfi_endproc
 175              	.LFE3:
 177              		.global	prog_brk_off
 178              		.section	.bss.prog_brk_off,"aw",%nobits
 179              		.align	2
 182              	prog_brk_off:
 183 0000 00000000 		.space	4
 184              		.section	.text._sbrk,"ax",%progbits
 185              		.align	1
 186              		.global	_sbrk
 187              		.syntax unified
 188              		.thumb
 189              		.thumb_func
 191              	_sbrk:
 192              	.LFB4:
ARM GAS  /tmp/cclgu0VH.s 			page 5


  48:./Tools/Src/undef.c **** 
  49:./Tools/Src/undef.c **** // int
  50:./Tools/Src/undef.c **** // _fstat_r (struct _reent *ptr,int fd,struct stat * pstat){return 0;}
  51:./Tools/Src/undef.c **** 
  52:./Tools/Src/undef.c **** extern const unsigned int _Min_Heap_Size;
  53:./Tools/Src/undef.c **** extern const unsigned int  _end;
  54:./Tools/Src/undef.c **** 
  55:./Tools/Src/undef.c **** ptrdiff_t prog_brk_off = 0;
  56:./Tools/Src/undef.c **** 
  57:./Tools/Src/undef.c **** void *  _sbrk (ptrdiff_t __incr){
 193              		.loc 1 57 33
 194              		.cfi_startproc
 195              		@ args = 0, pretend = 0, frame = 16
 196              		@ frame_needed = 1, uses_anonymous_args = 0
 197              		@ link register save eliminated.
 198 0000 80B4     		push	{r7}
 199              		.cfi_def_cfa_offset 4
 200              		.cfi_offset 7, -4
 201 0002 85B0     		sub	sp, sp, #20
 202              		.cfi_def_cfa_offset 24
 203 0004 00AF     		add	r7, sp, #0
 204              		.cfi_def_cfa_register 7
 205 0006 7860     		str	r0, [r7, #4]
  58:./Tools/Src/undef.c ****     void* old = (void*)((unsigned int )&_end + prog_brk_off);
 206              		.loc 1 58 46
 207 0008 0E4B     		ldr	r3, .L12
 208 000a 1B68     		ldr	r3, [r3]
 209 000c 1A46     		mov	r2, r3
 210              		.loc 1 58 25
 211 000e 0E4B     		ldr	r3, .L12+4
 212              		.loc 1 58 46
 213 0010 1344     		add	r3, r3, r2
 214              		.loc 1 58 11
 215 0012 FB60     		str	r3, [r7, #12]
  59:./Tools/Src/undef.c ****     if(prog_brk_off + __incr > (unsigned int )&_Min_Heap_Size)
 216              		.loc 1 59 21
 217 0014 0B4B     		ldr	r3, .L12
 218 0016 1A68     		ldr	r2, [r3]
 219 0018 7B68     		ldr	r3, [r7, #4]
 220 001a 1344     		add	r3, r3, r2
 221 001c 1A46     		mov	r2, r3
 222              		.loc 1 59 32
 223 001e 0B4B     		ldr	r3, .L12+8
 224              		.loc 1 59 7
 225 0020 9A42     		cmp	r2, r3
 226 0022 02D9     		bls	.L10
  60:./Tools/Src/undef.c ****         return (void*)-1;
 227              		.loc 1 60 16
 228 0024 4FF0FF33 		mov	r3, #-1
 229 0028 06E0     		b	.L11
 230              	.L10:
  61:./Tools/Src/undef.c ****     prog_brk_off += __incr;
 231              		.loc 1 61 18
 232 002a 064B     		ldr	r3, .L12
 233 002c 1A68     		ldr	r2, [r3]
 234 002e 7B68     		ldr	r3, [r7, #4]
 235 0030 1344     		add	r3, r3, r2
ARM GAS  /tmp/cclgu0VH.s 			page 6


 236 0032 044A     		ldr	r2, .L12
 237 0034 1360     		str	r3, [r2]
  62:./Tools/Src/undef.c ****     return old;
 238              		.loc 1 62 12
 239 0036 FB68     		ldr	r3, [r7, #12]
 240              	.L11:
  63:./Tools/Src/undef.c **** }
 241              		.loc 1 63 1
 242 0038 1846     		mov	r0, r3
 243 003a 1437     		adds	r7, r7, #20
 244              		.cfi_def_cfa_offset 4
 245 003c BD46     		mov	sp, r7
 246              		.cfi_def_cfa_register 13
 247              		@ sp needed
 248 003e 5DF8047B 		ldr	r7, [sp], #4
 249              		.cfi_restore 7
 250              		.cfi_def_cfa_offset 0
 251 0042 7047     		bx	lr
 252              	.L13:
 253              		.align	2
 254              	.L12:
 255 0044 00000000 		.word	prog_brk_off
 256 0048 00000000 		.word	_end
 257 004c 00000000 		.word	_Min_Heap_Size
 258              		.cfi_endproc
 259              	.LFE4:
 261              		.section	.text._lseek,"ax",%progbits
 262              		.align	1
 263              		.global	_lseek
 264              		.syntax unified
 265              		.thumb
 266              		.thumb_func
 268              	_lseek:
 269              	.LFB5:
  64:./Tools/Src/undef.c **** 
  65:./Tools/Src/undef.c **** // void *
  66:./Tools/Src/undef.c **** // _sbrk_r (struct _reent *ptr,
  67:./Tools/Src/undef.c **** //      ptrdiff_t incr){return NULL;}
  68:./Tools/Src/undef.c **** 
  69:./Tools/Src/undef.c **** int   _lseek (int __fildes, int __offset, int __whence){return 0;}
 270              		.loc 1 69 56
 271              		.cfi_startproc
 272              		@ args = 0, pretend = 0, frame = 16
 273              		@ frame_needed = 1, uses_anonymous_args = 0
 274              		@ link register save eliminated.
 275 0000 80B4     		push	{r7}
 276              		.cfi_def_cfa_offset 4
 277              		.cfi_offset 7, -4
 278 0002 85B0     		sub	sp, sp, #20
 279              		.cfi_def_cfa_offset 24
 280 0004 00AF     		add	r7, sp, #0
 281              		.cfi_def_cfa_register 7
 282 0006 F860     		str	r0, [r7, #12]
 283 0008 B960     		str	r1, [r7, #8]
 284 000a 7A60     		str	r2, [r7, #4]
 285              		.loc 1 69 64
 286 000c 0023     		movs	r3, #0
ARM GAS  /tmp/cclgu0VH.s 			page 7


 287              		.loc 1 69 66
 288 000e 1846     		mov	r0, r3
 289 0010 1437     		adds	r7, r7, #20
 290              		.cfi_def_cfa_offset 4
 291 0012 BD46     		mov	sp, r7
 292              		.cfi_def_cfa_register 13
 293              		@ sp needed
 294 0014 5DF8047B 		ldr	r7, [sp], #4
 295              		.cfi_restore 7
 296              		.cfi_def_cfa_offset 0
 297 0018 7047     		bx	lr
 298              		.cfi_endproc
 299              	.LFE5:
 301              		.section	.text._kill,"ax",%progbits
 302              		.align	1
 303              		.global	_kill
 304              		.syntax unified
 305              		.thumb
 306              		.thumb_func
 308              	_kill:
 309              	.LFB6:
  70:./Tools/Src/undef.c **** 
  71:./Tools/Src/undef.c **** // _off_t
  72:./Tools/Src/undef.c **** // _lseek_r (struct _reent *ptr,
  73:./Tools/Src/undef.c **** //      int fd,
  74:./Tools/Src/undef.c **** //      _off_t pos,
  75:./Tools/Src/undef.c **** //      int whence){return 0;}
  76:./Tools/Src/undef.c **** 
  77:./Tools/Src/undef.c **** int
  78:./Tools/Src/undef.c **** _kill (int pid,
  79:./Tools/Src/undef.c ****      int sig){return 0;}
 310              		.loc 1 79 14
 311              		.cfi_startproc
 312              		@ args = 0, pretend = 0, frame = 8
 313              		@ frame_needed = 1, uses_anonymous_args = 0
 314              		@ link register save eliminated.
 315 0000 80B4     		push	{r7}
 316              		.cfi_def_cfa_offset 4
 317              		.cfi_offset 7, -4
 318 0002 83B0     		sub	sp, sp, #12
 319              		.cfi_def_cfa_offset 16
 320 0004 00AF     		add	r7, sp, #0
 321              		.cfi_def_cfa_register 7
 322 0006 7860     		str	r0, [r7, #4]
 323 0008 3960     		str	r1, [r7]
 324              		.loc 1 79 22
 325 000a 0023     		movs	r3, #0
 326              		.loc 1 79 24
 327 000c 1846     		mov	r0, r3
 328 000e 0C37     		adds	r7, r7, #12
 329              		.cfi_def_cfa_offset 4
 330 0010 BD46     		mov	sp, r7
 331              		.cfi_def_cfa_register 13
 332              		@ sp needed
 333 0012 5DF8047B 		ldr	r7, [sp], #4
 334              		.cfi_restore 7
 335              		.cfi_def_cfa_offset 0
ARM GAS  /tmp/cclgu0VH.s 			page 8


 336 0016 7047     		bx	lr
 337              		.cfi_endproc
 338              	.LFE6:
 340              		.section	.text._getpid,"ax",%progbits
 341              		.align	1
 342              		.global	_getpid
 343              		.syntax unified
 344              		.thumb
 345              		.thumb_func
 347              	_getpid:
 348              	.LFB7:
  80:./Tools/Src/undef.c **** 
  81:./Tools/Src/undef.c **** // int
  82:./Tools/Src/undef.c **** // _kill_r (struct _reent *ptr,
  83:./Tools/Src/undef.c **** //      int pid,
  84:./Tools/Src/undef.c **** //      int sig){return 0;}
  85:./Tools/Src/undef.c **** 
  86:./Tools/Src/undef.c **** int
  87:./Tools/Src/undef.c **** _getpid (void) {return 0;}
 349              		.loc 1 87 16
 350              		.cfi_startproc
 351              		@ args = 0, pretend = 0, frame = 0
 352              		@ frame_needed = 1, uses_anonymous_args = 0
 353              		@ link register save eliminated.
 354 0000 80B4     		push	{r7}
 355              		.cfi_def_cfa_offset 4
 356              		.cfi_offset 7, -4
 357 0002 00AF     		add	r7, sp, #0
 358              		.cfi_def_cfa_register 7
 359              		.loc 1 87 24
 360 0004 0023     		movs	r3, #0
 361              		.loc 1 87 26
 362 0006 1846     		mov	r0, r3
 363 0008 BD46     		mov	sp, r7
 364              		.cfi_def_cfa_register 13
 365              		@ sp needed
 366 000a 5DF8047B 		ldr	r7, [sp], #4
 367              		.cfi_restore 7
 368              		.cfi_def_cfa_offset 0
 369 000e 7047     		bx	lr
 370              		.cfi_endproc
 371              	.LFE7:
 373              		.section	.text._isatty,"ax",%progbits
 374              		.align	1
 375              		.global	_isatty
 376              		.syntax unified
 377              		.thumb
 378              		.thumb_func
 380              	_isatty:
 381              	.LFB8:
  88:./Tools/Src/undef.c **** 
  89:./Tools/Src/undef.c **** // int
  90:./Tools/Src/undef.c **** // _getpid_r (struct _reent *ptr){return 0;};
  91:./Tools/Src/undef.c **** 
  92:./Tools/Src/undef.c **** // int
  93:./Tools/Src/undef.c **** // _isatty_r (struct _reent *ptr,int fd){return 0;}
  94:./Tools/Src/undef.c **** 
ARM GAS  /tmp/cclgu0VH.s 			page 9


  95:./Tools/Src/undef.c **** int	_isatty (int fd){return 0;}
 382              		.loc 1 95 21
 383              		.cfi_startproc
 384              		@ args = 0, pretend = 0, frame = 8
 385              		@ frame_needed = 1, uses_anonymous_args = 0
 386              		@ link register save eliminated.
 387 0000 80B4     		push	{r7}
 388              		.cfi_def_cfa_offset 4
 389              		.cfi_offset 7, -4
 390 0002 83B0     		sub	sp, sp, #12
 391              		.cfi_def_cfa_offset 16
 392 0004 00AF     		add	r7, sp, #0
 393              		.cfi_def_cfa_register 7
 394 0006 7860     		str	r0, [r7, #4]
 395              		.loc 1 95 29
 396 0008 0023     		movs	r3, #0
 397              		.loc 1 95 31
 398 000a 1846     		mov	r0, r3
 399 000c 0C37     		adds	r7, r7, #12
 400              		.cfi_def_cfa_offset 4
 401 000e BD46     		mov	sp, r7
 402              		.cfi_def_cfa_register 13
 403              		@ sp needed
 404 0010 5DF8047B 		ldr	r7, [sp], #4
 405              		.cfi_restore 7
 406              		.cfi_def_cfa_offset 0
 407 0014 7047     		bx	lr
 408              		.cfi_endproc
 409              	.LFE8:
 411              		.section	.text._exit,"ax",%progbits
 412              		.align	1
 413              		.global	_exit
 414              		.syntax unified
 415              		.thumb
 416              		.thumb_func
 418              	_exit:
 419              	.LFB9:
  96:./Tools/Src/undef.c **** 
  97:./Tools/Src/undef.c **** void	_exit		(int sig){}
 420              		.loc 1 97 22
 421              		.cfi_startproc
 422              		@ args = 0, pretend = 0, frame = 8
 423              		@ frame_needed = 1, uses_anonymous_args = 0
 424              		@ link register save eliminated.
 425 0000 80B4     		push	{r7}
 426              		.cfi_def_cfa_offset 4
 427              		.cfi_offset 7, -4
 428 0002 83B0     		sub	sp, sp, #12
 429              		.cfi_def_cfa_offset 16
 430 0004 00AF     		add	r7, sp, #0
 431              		.cfi_def_cfa_register 7
 432 0006 7860     		str	r0, [r7, #4]
 433              		.loc 1 97 23
 434 0008 00BF     		nop
 435 000a 0C37     		adds	r7, r7, #12
 436              		.cfi_def_cfa_offset 4
 437 000c BD46     		mov	sp, r7
ARM GAS  /tmp/cclgu0VH.s 			page 10


 438              		.cfi_def_cfa_register 13
 439              		@ sp needed
 440 000e 5DF8047B 		ldr	r7, [sp], #4
 441              		.cfi_restore 7
 442              		.cfi_def_cfa_offset 0
 443 0012 7047     		bx	lr
 444              		.cfi_endproc
 445              	.LFE9:
 447              		.text
 448              	.Letext0:
 449              		.file 2 "/usr/lib/gcc/arm-none-eabi/12.2.1/include/stddef.h"
ARM GAS  /tmp/cclgu0VH.s 			page 11

